	.text
	.file	"main.7rcbfp3g-cgu.0"
	.section	".text._ZN101_$LT$core..ptr..NonNull$LT$T$GT$$u20$as$u20$core..convert..From$LT$core..ptr..Unique$LT$T$GT$$GT$$GT$4from17h73a89a6ef97468e8E","ax",@progbits
	.p2align	4, 0x90
	.type	_ZN101_$LT$core..ptr..NonNull$LT$T$GT$$u20$as$u20$core..convert..From$LT$core..ptr..Unique$LT$T$GT$$GT$$GT$4from17h73a89a6ef97468e8E,@function
_ZN101_$LT$core..ptr..NonNull$LT$T$GT$$u20$as$u20$core..convert..From$LT$core..ptr..Unique$LT$T$GT$$GT$$GT$4from17h73a89a6ef97468e8E:
	.cfi_startproc
	pushq	%rax
	.cfi_def_cfa_offset 16
	movq	%rdi, (%rsp)
	movq	(%rsp), %rax
	popq	%rcx
	.cfi_def_cfa_offset 8
	retq
.Lfunc_end0:
	.size	_ZN101_$LT$core..ptr..NonNull$LT$T$GT$$u20$as$u20$core..convert..From$LT$core..ptr..Unique$LT$T$GT$$GT$$GT$4from17h73a89a6ef97468e8E, .Lfunc_end0-_ZN101_$LT$core..ptr..NonNull$LT$T$GT$$u20$as$u20$core..convert..From$LT$core..ptr..Unique$LT$T$GT$$GT$$GT$4from17h73a89a6ef97468e8E
	.cfi_endproc

	.section	".text._ZN101_$LT$core..ptr..NonNull$LT$T$GT$$u20$as$u20$core..convert..From$LT$core..ptr..Unique$LT$T$GT$$GT$$GT$4from17h7fe63cb9140ba72bE","ax",@progbits
	.p2align	4, 0x90
	.type	_ZN101_$LT$core..ptr..NonNull$LT$T$GT$$u20$as$u20$core..convert..From$LT$core..ptr..Unique$LT$T$GT$$GT$$GT$4from17h7fe63cb9140ba72bE,@function
_ZN101_$LT$core..ptr..NonNull$LT$T$GT$$u20$as$u20$core..convert..From$LT$core..ptr..Unique$LT$T$GT$$GT$$GT$4from17h7fe63cb9140ba72bE:
	.cfi_startproc
	subq	$16, %rsp
	.cfi_def_cfa_offset 24
	movq	%rdi, (%rsp)
	movq	%rsi, 8(%rsp)
	movq	(%rsp), %rax
	movq	8(%rsp), %rdx
	addq	$16, %rsp
	.cfi_def_cfa_offset 8
	retq
.Lfunc_end1:
	.size	_ZN101_$LT$core..ptr..NonNull$LT$T$GT$$u20$as$u20$core..convert..From$LT$core..ptr..Unique$LT$T$GT$$GT$$GT$4from17h7fe63cb9140ba72bE, .Lfunc_end1-_ZN101_$LT$core..ptr..NonNull$LT$T$GT$$u20$as$u20$core..convert..From$LT$core..ptr..Unique$LT$T$GT$$GT$$GT$4from17h7fe63cb9140ba72bE
	.cfi_endproc

	.section	".text._ZN101_$LT$core..ptr..NonNull$LT$T$GT$$u20$as$u20$core..convert..From$LT$core..ptr..Unique$LT$T$GT$$GT$$GT$4from17hc079cc30bd85f186E","ax",@progbits
	.p2align	4, 0x90
	.type	_ZN101_$LT$core..ptr..NonNull$LT$T$GT$$u20$as$u20$core..convert..From$LT$core..ptr..Unique$LT$T$GT$$GT$$GT$4from17hc079cc30bd85f186E,@function
_ZN101_$LT$core..ptr..NonNull$LT$T$GT$$u20$as$u20$core..convert..From$LT$core..ptr..Unique$LT$T$GT$$GT$$GT$4from17hc079cc30bd85f186E:
	.cfi_startproc
	pushq	%rax
	.cfi_def_cfa_offset 16
	movq	%rdi, (%rsp)
	movq	(%rsp), %rax
	popq	%rcx
	.cfi_def_cfa_offset 8
	retq
.Lfunc_end2:
	.size	_ZN101_$LT$core..ptr..NonNull$LT$T$GT$$u20$as$u20$core..convert..From$LT$core..ptr..Unique$LT$T$GT$$GT$$GT$4from17hc079cc30bd85f186E, .Lfunc_end2-_ZN101_$LT$core..ptr..NonNull$LT$T$GT$$u20$as$u20$core..convert..From$LT$core..ptr..Unique$LT$T$GT$$GT$$GT$4from17hc079cc30bd85f186E
	.cfi_endproc

	.section	".text._ZN101_$LT$core..ptr..Unique$LT$T$GT$$u20$as$u20$core..convert..From$LT$core..ptr..NonNull$LT$T$GT$$GT$$GT$4from17h625c1fa47f3066a0E","ax",@progbits
	.p2align	4, 0x90
	.type	_ZN101_$LT$core..ptr..Unique$LT$T$GT$$u20$as$u20$core..convert..From$LT$core..ptr..NonNull$LT$T$GT$$GT$$GT$4from17h625c1fa47f3066a0E,@function
_ZN101_$LT$core..ptr..Unique$LT$T$GT$$u20$as$u20$core..convert..From$LT$core..ptr..NonNull$LT$T$GT$$GT$$GT$4from17h625c1fa47f3066a0E:
	.cfi_startproc
	subq	$16, %rsp
	.cfi_def_cfa_offset 24
	movq	%rdi, (%rsp)
	movq	(%rsp), %rax
	addq	$16, %rsp
	.cfi_def_cfa_offset 8
	retq
.Lfunc_end3:
	.size	_ZN101_$LT$core..ptr..Unique$LT$T$GT$$u20$as$u20$core..convert..From$LT$core..ptr..NonNull$LT$T$GT$$GT$$GT$4from17h625c1fa47f3066a0E, .Lfunc_end3-_ZN101_$LT$core..ptr..Unique$LT$T$GT$$u20$as$u20$core..convert..From$LT$core..ptr..NonNull$LT$T$GT$$GT$$GT$4from17h625c1fa47f3066a0E
	.cfi_endproc

	.section	".text._ZN101_$LT$core..ptr..Unique$LT$T$GT$$u20$as$u20$core..convert..From$LT$core..ptr..NonNull$LT$T$GT$$GT$$GT$4from17hc5827c14e1a87922E","ax",@progbits
	.p2align	4, 0x90
	.type	_ZN101_$LT$core..ptr..Unique$LT$T$GT$$u20$as$u20$core..convert..From$LT$core..ptr..NonNull$LT$T$GT$$GT$$GT$4from17hc5827c14e1a87922E,@function
_ZN101_$LT$core..ptr..Unique$LT$T$GT$$u20$as$u20$core..convert..From$LT$core..ptr..NonNull$LT$T$GT$$GT$$GT$4from17hc5827c14e1a87922E:
	.cfi_startproc
	subq	$16, %rsp
	.cfi_def_cfa_offset 24
	movq	%rdi, (%rsp)
	movq	(%rsp), %rax
	addq	$16, %rsp
	.cfi_def_cfa_offset 8
	retq
.Lfunc_end4:
	.size	_ZN101_$LT$core..ptr..Unique$LT$T$GT$$u20$as$u20$core..convert..From$LT$core..ptr..NonNull$LT$T$GT$$GT$$GT$4from17hc5827c14e1a87922E, .Lfunc_end4-_ZN101_$LT$core..ptr..Unique$LT$T$GT$$u20$as$u20$core..convert..From$LT$core..ptr..NonNull$LT$T$GT$$GT$$GT$4from17hc5827c14e1a87922E
	.cfi_endproc

	.section	".text._ZN107_$LT$alloc..collections..CollectionAllocErr$u20$as$u20$core..convert..From$LT$core..alloc..AllocErr$GT$$GT$4from17hf3fbfeab3280aeb7E","ax",@progbits
	.p2align	4, 0x90
	.type	_ZN107_$LT$alloc..collections..CollectionAllocErr$u20$as$u20$core..convert..From$LT$core..alloc..AllocErr$GT$$GT$4from17hf3fbfeab3280aeb7E,@function
_ZN107_$LT$alloc..collections..CollectionAllocErr$u20$as$u20$core..convert..From$LT$core..alloc..AllocErr$GT$$GT$4from17hf3fbfeab3280aeb7E:
	.cfi_startproc
	subq	$1, %rsp
	.cfi_def_cfa_offset 9
	movb	$1, (%rsp)
	movb	(%rsp), %al
	andb	$1, %al
	movzbl	%al, %eax
	addq	$1, %rsp
	.cfi_def_cfa_offset 8
	retq
.Lfunc_end5:
	.size	_ZN107_$LT$alloc..collections..CollectionAllocErr$u20$as$u20$core..convert..From$LT$core..alloc..AllocErr$GT$$GT$4from17hf3fbfeab3280aeb7E, .Lfunc_end5-_ZN107_$LT$alloc..collections..CollectionAllocErr$u20$as$u20$core..convert..From$LT$core..alloc..AllocErr$GT$$GT$4from17hf3fbfeab3280aeb7E
	.cfi_endproc

	.section	".text._ZN33_$LT$alloc..vec..Vec$LT$T$GT$$GT$11extend_with17hc5bedad45259f7f2E","ax",@progbits
	.p2align	4, 0x90
	.type	_ZN33_$LT$alloc..vec..Vec$LT$T$GT$$GT$11extend_with17hc5bedad45259f7f2E,@function
_ZN33_$LT$alloc..vec..Vec$LT$T$GT$$GT$11extend_with17hc5bedad45259f7f2E:
.Lfunc_begin0:
	.cfi_startproc
	.cfi_personality 155, DW.ref.rust_eh_personality
	.cfi_lsda 27, .Lexception0
	subq	$280, %rsp
	.cfi_def_cfa_offset 288
	movb	%dl, %al
	andb	$1, %al
	movb	%al, 175(%rsp)
	movb	$0, 263(%rsp)
	movb	$1, 263(%rsp)
.Ltmp0:
	movq	%rdi, 160(%rsp)
	movq	%rsi, 152(%rsp)
	callq	_ZN33_$LT$alloc..vec..Vec$LT$T$GT$$GT$7reserve17h24b8c2cb80f3d1e2E
.Ltmp1:
	jmp	.LBB6_2
.LBB6_1:
	movq	264(%rsp), %rdi
	callq	_Unwind_Resume@PLT
	ud2
.LBB6_2:
.Ltmp2:
	movq	160(%rsp), %rdi
	callq	_ZN71_$LT$alloc..vec..Vec$LT$T$GT$$u20$as$u20$core..ops..deref..DerefMut$GT$9deref_mut17h2957ece111ea2d90E
.Ltmp3:
	movq	%rdx, 144(%rsp)
	movq	%rax, 136(%rsp)
	jmp	.LBB6_3
.LBB6_3:
.Ltmp4:
	movq	136(%rsp), %rdi
	movq	144(%rsp), %rsi
	callq	_ZN4core5slice29_$LT$impl$u20$$u5b$T$u5d$$GT$10as_mut_ptr17hb3692b4b34bed408E
.Ltmp5:
	movq	%rax, 128(%rsp)
	jmp	.LBB6_4
.LBB6_4:
.Ltmp6:
	movq	160(%rsp), %rdi
	callq	_ZN33_$LT$alloc..vec..Vec$LT$T$GT$$GT$3len17h48c92234f90c7e27E
.Ltmp7:
	movq	%rax, 120(%rsp)
	jmp	.LBB6_5
.LBB6_5:
.Ltmp8:
	movq	128(%rsp), %rdi
	movq	120(%rsp), %rsi
	callq	_ZN4core3ptr31_$LT$impl$u20$$BP$mut$u20$T$GT$3add17hda59804c831a061bE
.Ltmp9:
	movq	%rax, 112(%rsp)
	jmp	.LBB6_6
.LBB6_6:
	movq	112(%rsp), %rax
	movq	%rax, 176(%rsp)
	movq	160(%rsp), %rcx
	addq	$16, %rcx
.Ltmp10:
	movq	%rcx, %rdi
	callq	_ZN5alloc3vec12SetLenOnDrop3new17h7d7ea1632535aa06E
.Ltmp11:
	movq	%rdx, 104(%rsp)
	movq	%rax, 96(%rsp)
	jmp	.LBB6_7
.LBB6_7:
	movq	96(%rsp), %rax
	movq	%rax, 184(%rsp)
	movq	104(%rsp), %rcx
	movq	%rcx, 192(%rsp)
	movq	$1, 208(%rsp)
	movq	152(%rsp), %rdx
	movq	%rdx, 216(%rsp)
	movq	208(%rsp), %rdi
	movq	216(%rsp), %rsi
.Ltmp12:
	callq	_ZN54_$LT$I$u20$as$u20$core..iter..traits..IntoIterator$GT$9into_iter17hdb39dad46c0df481E
.Ltmp13:
	movq	%rdx, 88(%rsp)
	movq	%rax, 80(%rsp)
	jmp	.LBB6_8
.LBB6_8:
	movq	80(%rsp), %rax
	movq	%rax, 224(%rsp)
	movq	88(%rsp), %rax
	movq	%rax, 232(%rsp)
	jmp	.LBB6_10
.LBB6_9:
	leaq	184(%rsp), %rdi
	callq	_ZN4core3ptr18real_drop_in_place17h1c1f4caa66a1eb8bE
	jmp	.LBB6_27
.LBB6_10:
.Ltmp14:
	leaq	224(%rsp), %rdi
	callq	_ZN4core4iter5range93_$LT$impl$u20$core..iter..iterator..Iterator$u20$for$u20$core..ops..range..Range$LT$A$GT$$GT$4next17h86fc2f8c85def6a0E
.Ltmp15:
	movq	%rdx, 72(%rsp)
	movq	%rax, 64(%rsp)
	jmp	.LBB6_11
.LBB6_11:
	movq	64(%rsp), %rax
	movq	%rax, 240(%rsp)
	movq	72(%rsp), %rcx
	movq	%rcx, 248(%rsp)
	movq	240(%rsp), %rdx
	testq	%rdx, %rdx
	movq	%rdx, 56(%rsp)
	je	.LBB6_12
	jmp	.LBB6_31
.LBB6_31:
	movq	56(%rsp), %rax
	subq	$1, %rax
	movq	%rax, 48(%rsp)
	je	.LBB6_14
	jmp	.LBB6_13
.LBB6_12:
	movq	152(%rsp), %rax
	cmpq	$0, %rax
	ja	.LBB6_19
	jmp	.LBB6_23
.LBB6_13:
	ud2
.LBB6_14:
	movq	176(%rsp), %rdi
.Ltmp16:
	leaq	175(%rsp), %rax
	movq	%rdi, 40(%rsp)
	movq	%rax, %rdi
	callq	_ZN86_$LT$alloc..vec..ExtendElement$LT$T$GT$$u20$as$u20$alloc..vec..ExtendWith$LT$T$GT$$GT$4next17hd2ca281af52fe75bE
.Ltmp17:
	movb	%al, 39(%rsp)
	jmp	.LBB6_15
.LBB6_15:
.Ltmp18:
	movb	39(%rsp), %al
	movzbl	%al, %ecx
	andl	$1, %ecx
	movq	40(%rsp), %rdi
	movl	%ecx, %esi
	callq	_ZN4core3ptr5write17hd038902c41a85a1eE
.Ltmp19:
	jmp	.LBB6_16
.LBB6_16:
	movq	176(%rsp), %rdi
.Ltmp20:
	movl	$1, %esi
	callq	_ZN4core3ptr31_$LT$impl$u20$$BP$mut$u20$T$GT$6offset17h262d0988c0fa6904E
.Ltmp21:
	movq	%rax, 24(%rsp)
	jmp	.LBB6_17
.LBB6_17:
	movq	24(%rsp), %rax
	movq	%rax, 176(%rsp)
.Ltmp22:
	leaq	184(%rsp), %rdi
	movl	$1, %esi
	callq	_ZN5alloc3vec12SetLenOnDrop13increment_len17h2dc7a8cdb67e4587E
.Ltmp23:
	jmp	.LBB6_18
.LBB6_18:
	jmp	.LBB6_10
.LBB6_19:
	movq	176(%rsp), %rdi
	movb	$0, 263(%rsp)
	movzbl	175(%rsp), %eax
.Ltmp24:
	movq	%rdi, 16(%rsp)
	movl	%eax, %edi
	callq	_ZN86_$LT$alloc..vec..ExtendElement$LT$T$GT$$u20$as$u20$alloc..vec..ExtendWith$LT$T$GT$$GT$4last17hc937e17d498a8848E
.Ltmp25:
	movb	%al, 15(%rsp)
	jmp	.LBB6_20
.LBB6_20:
.Ltmp26:
	movb	15(%rsp), %al
	movzbl	%al, %ecx
	andl	$1, %ecx
	movq	16(%rsp), %rdi
	movl	%ecx, %esi
	callq	_ZN4core3ptr5write17hd038902c41a85a1eE
.Ltmp27:
	jmp	.LBB6_21
.LBB6_21:
.Ltmp28:
	leaq	184(%rsp), %rdi
	movl	$1, %esi
	callq	_ZN5alloc3vec12SetLenOnDrop13increment_len17h2dc7a8cdb67e4587E
.Ltmp29:
	jmp	.LBB6_22
.LBB6_22:
	jmp	.LBB6_23
.LBB6_23:
.Ltmp31:
	leaq	184(%rsp), %rdi
	callq	_ZN4core3ptr18real_drop_in_place17h1c1f4caa66a1eb8bE
.Ltmp32:
	jmp	.LBB6_24
.LBB6_24:
	testb	$1, 263(%rsp)
	jne	.LBB6_28
.LBB6_25:
	addq	$280, %rsp
	.cfi_def_cfa_offset 8
	retq
.LBB6_26:
	.cfi_def_cfa_offset 288
	movb	$0, 263(%rsp)
	jmp	.LBB6_1
.LBB6_27:
	testb	$1, 263(%rsp)
	jne	.LBB6_26
	jmp	.LBB6_1
.LBB6_28:
	movb	$0, 263(%rsp)
	jmp	.LBB6_25
.LBB6_29:
.Ltmp33:
	movl	%edx, %ecx
	movq	%rax, 264(%rsp)
	movl	%ecx, 272(%rsp)
	jmp	.LBB6_27
.LBB6_30:
.Ltmp30:
	movl	%edx, %ecx
	movq	%rax, 264(%rsp)
	movl	%ecx, 272(%rsp)
	jmp	.LBB6_9
.Lfunc_end6:
	.size	_ZN33_$LT$alloc..vec..Vec$LT$T$GT$$GT$11extend_with17hc5bedad45259f7f2E, .Lfunc_end6-_ZN33_$LT$alloc..vec..Vec$LT$T$GT$$GT$11extend_with17hc5bedad45259f7f2E
	.cfi_endproc
	.section	.gcc_except_table,"a",@progbits
	.p2align	2
GCC_except_table6:
.Lexception0:
	.byte	255
	.byte	255
	.byte	1
	.uleb128 .Lcst_end0-.Lcst_begin0
.Lcst_begin0:
	.uleb128 .Ltmp0-.Lfunc_begin0
	.uleb128 .Ltmp1-.Ltmp0
	.uleb128 .Ltmp33-.Lfunc_begin0
	.byte	0
	.uleb128 .Ltmp1-.Lfunc_begin0
	.uleb128 .Ltmp2-.Ltmp1
	.byte	0
	.byte	0
	.uleb128 .Ltmp2-.Lfunc_begin0
	.uleb128 .Ltmp11-.Ltmp2
	.uleb128 .Ltmp33-.Lfunc_begin0
	.byte	0
	.uleb128 .Ltmp12-.Lfunc_begin0
	.uleb128 .Ltmp13-.Ltmp12
	.uleb128 .Ltmp30-.Lfunc_begin0
	.byte	0
	.uleb128 .Ltmp13-.Lfunc_begin0
	.uleb128 .Ltmp14-.Ltmp13
	.byte	0
	.byte	0
	.uleb128 .Ltmp14-.Lfunc_begin0
	.uleb128 .Ltmp29-.Ltmp14
	.uleb128 .Ltmp30-.Lfunc_begin0
	.byte	0
	.uleb128 .Ltmp31-.Lfunc_begin0
	.uleb128 .Ltmp32-.Ltmp31
	.uleb128 .Ltmp33-.Lfunc_begin0
	.byte	0
.Lcst_end0:
	.p2align	2

	.section	".text._ZN33_$LT$alloc..vec..Vec$LT$T$GT$$GT$12as_mut_slice17h54c175044e9e87c9E","ax",@progbits
	.p2align	4, 0x90
	.type	_ZN33_$LT$alloc..vec..Vec$LT$T$GT$$GT$12as_mut_slice17h54c175044e9e87c9E,@function
_ZN33_$LT$alloc..vec..Vec$LT$T$GT$$GT$12as_mut_slice17h54c175044e9e87c9E:
	.cfi_startproc
	subq	$24, %rsp
	.cfi_def_cfa_offset 32
	callq	_ZN71_$LT$alloc..vec..Vec$LT$T$GT$$u20$as$u20$core..ops..deref..DerefMut$GT$9deref_mut17h2957ece111ea2d90E
	movq	%rax, 16(%rsp)
	movq	%rdx, 8(%rsp)
	movq	16(%rsp), %rax
	movq	8(%rsp), %rdx
	addq	$24, %rsp
	.cfi_def_cfa_offset 8
	retq
.Lfunc_end7:
	.size	_ZN33_$LT$alloc..vec..Vec$LT$T$GT$$GT$12as_mut_slice17h54c175044e9e87c9E, .Lfunc_end7-_ZN33_$LT$alloc..vec..Vec$LT$T$GT$$GT$12as_mut_slice17h54c175044e9e87c9E
	.cfi_endproc

	.section	".text._ZN33_$LT$alloc..vec..Vec$LT$T$GT$$GT$13with_capacity17hcb189d01c283be3fE","ax",@progbits
	.p2align	4, 0x90
	.type	_ZN33_$LT$alloc..vec..Vec$LT$T$GT$$GT$13with_capacity17hcb189d01c283be3fE,@function
_ZN33_$LT$alloc..vec..Vec$LT$T$GT$$GT$13with_capacity17hcb189d01c283be3fE:
	.cfi_startproc
	subq	$40, %rsp
	.cfi_def_cfa_offset 48
	movq	%rdi, %rax
	movq	%rdi, 32(%rsp)
	movq	%rsi, %rdi
	movq	%rax, 24(%rsp)
	callq	_ZN40_$LT$alloc..raw_vec..RawVec$LT$T$GT$$GT$13with_capacity17h6fdac0df5ba31109E
	movq	%rax, 16(%rsp)
	movq	%rdx, 8(%rsp)
	movq	32(%rsp), %rax
	movq	16(%rsp), %rcx
	movq	%rcx, (%rax)
	movq	8(%rsp), %rdx
	movq	%rdx, 8(%rax)
	movq	$0, 16(%rax)
	movq	24(%rsp), %rax
	addq	$40, %rsp
	.cfi_def_cfa_offset 8
	retq
.Lfunc_end8:
	.size	_ZN33_$LT$alloc..vec..Vec$LT$T$GT$$GT$13with_capacity17hcb189d01c283be3fE, .Lfunc_end8-_ZN33_$LT$alloc..vec..Vec$LT$T$GT$$GT$13with_capacity17hcb189d01c283be3fE
	.cfi_endproc

	.section	".text._ZN33_$LT$alloc..vec..Vec$LT$T$GT$$GT$14from_raw_parts17h6dd53d70efc94b56E","ax",@progbits
	.p2align	4, 0x90
	.type	_ZN33_$LT$alloc..vec..Vec$LT$T$GT$$GT$14from_raw_parts17h6dd53d70efc94b56E,@function
_ZN33_$LT$alloc..vec..Vec$LT$T$GT$$GT$14from_raw_parts17h6dd53d70efc94b56E:
	.cfi_startproc
	subq	$40, %rsp
	.cfi_def_cfa_offset 48
	movq	%rdi, %rax
	movq	%rdi, 32(%rsp)
	movq	%rsi, %rdi
	movq	%rcx, %rsi
	movq	%rax, 24(%rsp)
	movq	%rdx, 16(%rsp)
	callq	_ZN40_$LT$alloc..raw_vec..RawVec$LT$T$GT$$GT$14from_raw_parts17h5c04b26b06025ea6E
	movq	%rax, 8(%rsp)
	movq	%rdx, (%rsp)
	movq	32(%rsp), %rax
	movq	8(%rsp), %rcx
	movq	%rcx, (%rax)
	movq	(%rsp), %rdx
	movq	%rdx, 8(%rax)
	movq	16(%rsp), %rsi
	movq	%rsi, 16(%rax)
	movq	24(%rsp), %rax
	addq	$40, %rsp
	.cfi_def_cfa_offset 8
	retq
.Lfunc_end9:
	.size	_ZN33_$LT$alloc..vec..Vec$LT$T$GT$$GT$14from_raw_parts17h6dd53d70efc94b56E, .Lfunc_end9-_ZN33_$LT$alloc..vec..Vec$LT$T$GT$$GT$14from_raw_parts17h6dd53d70efc94b56E
	.cfi_endproc

	.section	".text._ZN33_$LT$alloc..vec..Vec$LT$T$GT$$GT$3len17h48c92234f90c7e27E","ax",@progbits
	.p2align	4, 0x90
	.type	_ZN33_$LT$alloc..vec..Vec$LT$T$GT$$GT$3len17h48c92234f90c7e27E,@function
_ZN33_$LT$alloc..vec..Vec$LT$T$GT$$GT$3len17h48c92234f90c7e27E:
	.cfi_startproc
	movq	16(%rdi), %rax
	retq
.Lfunc_end10:
	.size	_ZN33_$LT$alloc..vec..Vec$LT$T$GT$$GT$3len17h48c92234f90c7e27E, .Lfunc_end10-_ZN33_$LT$alloc..vec..Vec$LT$T$GT$$GT$3len17h48c92234f90c7e27E
	.cfi_endproc

	.section	".text._ZN33_$LT$alloc..vec..Vec$LT$T$GT$$GT$3len17h7bf1344a8d0c50dbE","ax",@progbits
	.p2align	4, 0x90
	.type	_ZN33_$LT$alloc..vec..Vec$LT$T$GT$$GT$3len17h7bf1344a8d0c50dbE,@function
_ZN33_$LT$alloc..vec..Vec$LT$T$GT$$GT$3len17h7bf1344a8d0c50dbE:
	.cfi_startproc
	movq	16(%rdi), %rax
	retq
.Lfunc_end11:
	.size	_ZN33_$LT$alloc..vec..Vec$LT$T$GT$$GT$3len17h7bf1344a8d0c50dbE, .Lfunc_end11-_ZN33_$LT$alloc..vec..Vec$LT$T$GT$$GT$3len17h7bf1344a8d0c50dbE
	.cfi_endproc

	.section	".text._ZN33_$LT$alloc..vec..Vec$LT$T$GT$$GT$4push17h88e0f54a44bfc027E","ax",@progbits
	.p2align	4, 0x90
	.type	_ZN33_$LT$alloc..vec..Vec$LT$T$GT$$GT$4push17h88e0f54a44bfc027E,@function
_ZN33_$LT$alloc..vec..Vec$LT$T$GT$$GT$4push17h88e0f54a44bfc027E:
.Lfunc_begin1:
	.cfi_startproc
	.cfi_personality 155, DW.ref.rust_eh_personality
	.cfi_lsda 27, .Lexception1
	subq	$392, %rsp
	.cfi_def_cfa_offset 400
	movb	$0, 367(%rsp)
	movb	$1, 367(%rsp)
	movq	16(%rdi), %rax
	movq	%rdi, %rcx
.Ltmp34:
	movq	%rdi, 96(%rsp)
	movq	%rsi, 88(%rsp)
	movq	%rax, 80(%rsp)
	movq	%rcx, 72(%rsp)
	callq	_ZN4core3mem7size_of17h436ecd71989f1da2E
.Ltmp35:
	movq	%rax, 64(%rsp)
	jmp	.LBB12_1
.LBB12_1:
	movq	64(%rsp), %rax
	cmpq	$0, %rax
	jne	.LBB12_3
	movq	$-1, 384(%rsp)
	jmp	.LBB12_4
.LBB12_3:
	movq	72(%rsp), %rax
	movq	8(%rax), %rcx
	movq	%rcx, 384(%rsp)
.LBB12_4:
	movq	384(%rsp), %rax
	movq	%rax, 56(%rsp)
	jmp	.LBB12_6
.LBB12_5:
	movq	368(%rsp), %rdi
	callq	_Unwind_Resume@PLT
	ud2
.LBB12_6:
	movq	80(%rsp), %rax
	movq	56(%rsp), %rcx
	cmpq	%rcx, %rax
	jne	.LBB12_9
.Ltmp36:
	movl	$1, %esi
	movq	96(%rsp), %rdi
	callq	_ZN33_$LT$alloc..vec..Vec$LT$T$GT$$GT$7reserve17h8adc8f13a08b4d8bE
.Ltmp37:
	jmp	.LBB12_8
.LBB12_8:
	jmp	.LBB12_9
.LBB12_9:
.Ltmp38:
	movq	96(%rsp), %rdi
	callq	_ZN71_$LT$alloc..vec..Vec$LT$T$GT$$u20$as$u20$core..ops..deref..DerefMut$GT$9deref_mut17h49da01ed9262e258E
.Ltmp39:
	movq	%rdx, 48(%rsp)
	movq	%rax, 40(%rsp)
	jmp	.LBB12_10
.LBB12_10:
.Ltmp40:
	movq	40(%rsp), %rdi
	movq	48(%rsp), %rsi
	callq	_ZN4core5slice29_$LT$impl$u20$$u5b$T$u5d$$GT$10as_mut_ptr17h849939c9d7044990E
.Ltmp41:
	movq	%rax, 32(%rsp)
	jmp	.LBB12_11
.LBB12_11:
	movq	96(%rsp), %rax
	movq	16(%rax), %rsi
.Ltmp42:
	movq	32(%rsp), %rdi
	callq	_ZN4core3ptr31_$LT$impl$u20$$BP$mut$u20$T$GT$3add17h41920675da3962fdE
.Ltmp43:
	movq	%rax, 24(%rsp)
	jmp	.LBB12_12
.LBB12_12:
	movb	$0, 367(%rsp)
	movq	memcpy@GOTPCREL(%rip), %rax
	leaq	104(%rsp), %rcx
	movl	$256, %edx
	movq	%rcx, %rdi
	movq	88(%rsp), %rsi
	movq	%rcx, 16(%rsp)
	callq	*%rax
.Ltmp44:
	movq	24(%rsp), %rdi
	movq	16(%rsp), %rsi
	movq	%rax, 8(%rsp)
	callq	_ZN4core3ptr5write17h3a1b92f396bafaf6E
.Ltmp45:
	jmp	.LBB12_13
.LBB12_13:
	movq	96(%rsp), %rax
	movq	16(%rax), %rcx
	addq	$1, %rcx
	movq	%rcx, 16(%rax)
	addq	$392, %rsp
	.cfi_def_cfa_offset 8
	retq
.LBB12_14:
	.cfi_def_cfa_offset 400
	movb	$0, 367(%rsp)
	jmp	.LBB12_5
.LBB12_15:
	testb	$1, 367(%rsp)
	jne	.LBB12_14
	jmp	.LBB12_5
.LBB12_16:
.Ltmp46:
	movl	%edx, %ecx
	movq	%rax, 368(%rsp)
	movl	%ecx, 376(%rsp)
	jmp	.LBB12_15
.Lfunc_end12:
	.size	_ZN33_$LT$alloc..vec..Vec$LT$T$GT$$GT$4push17h88e0f54a44bfc027E, .Lfunc_end12-_ZN33_$LT$alloc..vec..Vec$LT$T$GT$$GT$4push17h88e0f54a44bfc027E
	.cfi_endproc
	.section	.gcc_except_table,"a",@progbits
	.p2align	2
GCC_except_table12:
.Lexception1:
	.byte	255
	.byte	255
	.byte	1
	.uleb128 .Lcst_end1-.Lcst_begin1
.Lcst_begin1:
	.uleb128 .Ltmp34-.Lfunc_begin1
	.uleb128 .Ltmp35-.Ltmp34
	.uleb128 .Ltmp46-.Lfunc_begin1
	.byte	0
	.uleb128 .Ltmp35-.Lfunc_begin1
	.uleb128 .Ltmp36-.Ltmp35
	.byte	0
	.byte	0
	.uleb128 .Ltmp36-.Lfunc_begin1
	.uleb128 .Ltmp43-.Ltmp36
	.uleb128 .Ltmp46-.Lfunc_begin1
	.byte	0
	.uleb128 .Ltmp43-.Lfunc_begin1
	.uleb128 .Ltmp44-.Ltmp43
	.byte	0
	.byte	0
	.uleb128 .Ltmp44-.Lfunc_begin1
	.uleb128 .Ltmp45-.Ltmp44
	.uleb128 .Ltmp46-.Lfunc_begin1
	.byte	0
.Lcst_end1:
	.p2align	2

	.section	".text._ZN33_$LT$alloc..vec..Vec$LT$T$GT$$GT$7reserve17h24b8c2cb80f3d1e2E","ax",@progbits
	.p2align	4, 0x90
	.type	_ZN33_$LT$alloc..vec..Vec$LT$T$GT$$GT$7reserve17h24b8c2cb80f3d1e2E,@function
_ZN33_$LT$alloc..vec..Vec$LT$T$GT$$GT$7reserve17h24b8c2cb80f3d1e2E:
	.cfi_startproc
	subq	$24, %rsp
	.cfi_def_cfa_offset 32
	movq	%rdi, %rax
	movq	16(%rdi), %rdi
	movq	%rdi, 16(%rsp)
	movq	%rax, %rdi
	movq	16(%rsp), %rax
	movq	%rsi, 8(%rsp)
	movq	%rax, %rsi
	movq	8(%rsp), %rdx
	callq	_ZN49_$LT$alloc..raw_vec..RawVec$LT$T$C$$u20$A$GT$$GT$7reserve17hf61f4a8b579e7b24E
	addq	$24, %rsp
	.cfi_def_cfa_offset 8
	retq
.Lfunc_end13:
	.size	_ZN33_$LT$alloc..vec..Vec$LT$T$GT$$GT$7reserve17h24b8c2cb80f3d1e2E, .Lfunc_end13-_ZN33_$LT$alloc..vec..Vec$LT$T$GT$$GT$7reserve17h24b8c2cb80f3d1e2E
	.cfi_endproc

	.section	".text._ZN33_$LT$alloc..vec..Vec$LT$T$GT$$GT$7reserve17h8adc8f13a08b4d8bE","ax",@progbits
	.p2align	4, 0x90
	.type	_ZN33_$LT$alloc..vec..Vec$LT$T$GT$$GT$7reserve17h8adc8f13a08b4d8bE,@function
_ZN33_$LT$alloc..vec..Vec$LT$T$GT$$GT$7reserve17h8adc8f13a08b4d8bE:
	.cfi_startproc
	subq	$24, %rsp
	.cfi_def_cfa_offset 32
	movq	%rdi, %rax
	movq	16(%rdi), %rdi
	movq	%rdi, 16(%rsp)
	movq	%rax, %rdi
	movq	16(%rsp), %rax
	movq	%rsi, 8(%rsp)
	movq	%rax, %rsi
	movq	8(%rsp), %rdx
	callq	_ZN49_$LT$alloc..raw_vec..RawVec$LT$T$C$$u20$A$GT$$GT$7reserve17h7abb3a56190d017bE
	addq	$24, %rsp
	.cfi_def_cfa_offset 8
	retq
.Lfunc_end14:
	.size	_ZN33_$LT$alloc..vec..Vec$LT$T$GT$$GT$7reserve17h8adc8f13a08b4d8bE, .Lfunc_end14-_ZN33_$LT$alloc..vec..Vec$LT$T$GT$$GT$7reserve17h8adc8f13a08b4d8bE
	.cfi_endproc

	.section	".text._ZN35_$LT$alloc..boxed..Box$LT$T$GT$$GT$11into_unique17hfafa68bcbdf95593E","ax",@progbits
	.p2align	4, 0x90
	.type	_ZN35_$LT$alloc..boxed..Box$LT$T$GT$$GT$11into_unique17hfafa68bcbdf95593E,@function
_ZN35_$LT$alloc..boxed..Box$LT$T$GT$$GT$11into_unique17hfafa68bcbdf95593E:
	.cfi_startproc
	subq	$24, %rsp
	.cfi_def_cfa_offset 32
	movq	%rdi, %rax
	movq	%rsi, %rcx
	movq	%rax, 16(%rsp)
	movq	%rcx, 8(%rsp)
	callq	_ZN4core3mem6forget17hc436107cd20cbe54E
	movq	16(%rsp), %rax
	movq	8(%rsp), %rdx
	addq	$24, %rsp
	.cfi_def_cfa_offset 8
	retq
.Lfunc_end15:
	.size	_ZN35_$LT$alloc..boxed..Box$LT$T$GT$$GT$11into_unique17hfafa68bcbdf95593E, .Lfunc_end15-_ZN35_$LT$alloc..boxed..Box$LT$T$GT$$GT$11into_unique17hfafa68bcbdf95593E
	.cfi_endproc

	.section	".text._ZN35_$LT$alloc..boxed..Box$LT$T$GT$$GT$17into_raw_non_null17h62aa7c83b9b44c29E","ax",@progbits
	.p2align	4, 0x90
	.type	_ZN35_$LT$alloc..boxed..Box$LT$T$GT$$GT$17into_raw_non_null17h62aa7c83b9b44c29E,@function
_ZN35_$LT$alloc..boxed..Box$LT$T$GT$$GT$17into_raw_non_null17h62aa7c83b9b44c29E:
	.cfi_startproc
	subq	$40, %rsp
	.cfi_def_cfa_offset 48
	callq	_ZN35_$LT$alloc..boxed..Box$LT$T$GT$$GT$11into_unique17hfafa68bcbdf95593E
	movq	%rax, 32(%rsp)
	movq	%rdx, 24(%rsp)
	movq	32(%rsp), %rdi
	movq	24(%rsp), %rsi
	callq	_ZN50_$LT$T$u20$as$u20$core..convert..Into$LT$U$GT$$GT$4into17hbd0a34baa2f7767eE
	movq	%rax, 16(%rsp)
	movq	%rdx, 8(%rsp)
	movq	16(%rsp), %rax
	movq	8(%rsp), %rdx
	addq	$40, %rsp
	.cfi_def_cfa_offset 8
	retq
.Lfunc_end16:
	.size	_ZN35_$LT$alloc..boxed..Box$LT$T$GT$$GT$17into_raw_non_null17h62aa7c83b9b44c29E, .Lfunc_end16-_ZN35_$LT$alloc..boxed..Box$LT$T$GT$$GT$17into_raw_non_null17h62aa7c83b9b44c29E
	.cfi_endproc

	.section	".text._ZN35_$LT$alloc..boxed..Box$LT$T$GT$$GT$8into_raw17h001b9f9e9a7e7cbaE","ax",@progbits
	.p2align	4, 0x90
	.type	_ZN35_$LT$alloc..boxed..Box$LT$T$GT$$GT$8into_raw17h001b9f9e9a7e7cbaE,@function
_ZN35_$LT$alloc..boxed..Box$LT$T$GT$$GT$8into_raw17h001b9f9e9a7e7cbaE:
	.cfi_startproc
	subq	$40, %rsp
	.cfi_def_cfa_offset 48
	callq	_ZN35_$LT$alloc..boxed..Box$LT$T$GT$$GT$17into_raw_non_null17h62aa7c83b9b44c29E
	movq	%rax, 32(%rsp)
	movq	%rdx, 24(%rsp)
	movq	32(%rsp), %rdi
	movq	24(%rsp), %rsi
	callq	_ZN36_$LT$core..ptr..NonNull$LT$T$GT$$GT$6as_ptr17hb968d918a90267afE
	movq	%rax, 16(%rsp)
	movq	%rdx, 8(%rsp)
	movq	16(%rsp), %rax
	movq	8(%rsp), %rdx
	addq	$40, %rsp
	.cfi_def_cfa_offset 8
	retq
.Lfunc_end17:
	.size	_ZN35_$LT$alloc..boxed..Box$LT$T$GT$$GT$8into_raw17h001b9f9e9a7e7cbaE, .Lfunc_end17-_ZN35_$LT$alloc..boxed..Box$LT$T$GT$$GT$8into_raw17h001b9f9e9a7e7cbaE
	.cfi_endproc

	.section	".text._ZN35_$LT$core..ptr..Unique$LT$T$GT$$GT$13new_unchecked17hb1f31102378bb516E","ax",@progbits
	.p2align	4, 0x90
	.type	_ZN35_$LT$core..ptr..Unique$LT$T$GT$$GT$13new_unchecked17hb1f31102378bb516E,@function
_ZN35_$LT$core..ptr..Unique$LT$T$GT$$GT$13new_unchecked17hb1f31102378bb516E:
	.cfi_startproc
	subq	$16, %rsp
	.cfi_def_cfa_offset 24
	movq	%rdi, (%rsp)
	movq	(%rsp), %rax
	addq	$16, %rsp
	.cfi_def_cfa_offset 8
	retq
.Lfunc_end18:
	.size	_ZN35_$LT$core..ptr..Unique$LT$T$GT$$GT$13new_unchecked17hb1f31102378bb516E, .Lfunc_end18-_ZN35_$LT$core..ptr..Unique$LT$T$GT$$GT$13new_unchecked17hb1f31102378bb516E
	.cfi_endproc

	.section	".text._ZN35_$LT$core..ptr..Unique$LT$T$GT$$GT$6as_ptr17h1d872ee07e3af1eaE","ax",@progbits
	.p2align	4, 0x90
	.type	_ZN35_$LT$core..ptr..Unique$LT$T$GT$$GT$6as_ptr17h1d872ee07e3af1eaE,@function
_ZN35_$LT$core..ptr..Unique$LT$T$GT$$GT$6as_ptr17h1d872ee07e3af1eaE:
	.cfi_startproc
	movq	%rdi, %rax
	movq	%rsi, %rdx
	retq
.Lfunc_end19:
	.size	_ZN35_$LT$core..ptr..Unique$LT$T$GT$$GT$6as_ptr17h1d872ee07e3af1eaE, .Lfunc_end19-_ZN35_$LT$core..ptr..Unique$LT$T$GT$$GT$6as_ptr17h1d872ee07e3af1eaE
	.cfi_endproc

	.section	".text._ZN35_$LT$core..ptr..Unique$LT$T$GT$$GT$6as_ptr17h8c27853d8038bdadE","ax",@progbits
	.p2align	4, 0x90
	.type	_ZN35_$LT$core..ptr..Unique$LT$T$GT$$GT$6as_ptr17h8c27853d8038bdadE,@function
_ZN35_$LT$core..ptr..Unique$LT$T$GT$$GT$6as_ptr17h8c27853d8038bdadE:
	.cfi_startproc
	movq	%rdi, %rax
	retq
.Lfunc_end20:
	.size	_ZN35_$LT$core..ptr..Unique$LT$T$GT$$GT$6as_ptr17h8c27853d8038bdadE, .Lfunc_end20-_ZN35_$LT$core..ptr..Unique$LT$T$GT$$GT$6as_ptr17h8c27853d8038bdadE
	.cfi_endproc

	.section	".text._ZN35_$LT$core..ptr..Unique$LT$T$GT$$GT$6as_ptr17hba5c059b04d49cd3E","ax",@progbits
	.p2align	4, 0x90
	.type	_ZN35_$LT$core..ptr..Unique$LT$T$GT$$GT$6as_ptr17hba5c059b04d49cd3E,@function
_ZN35_$LT$core..ptr..Unique$LT$T$GT$$GT$6as_ptr17hba5c059b04d49cd3E:
	.cfi_startproc
	movq	%rdi, %rax
	movq	%rsi, %rdx
	retq
.Lfunc_end21:
	.size	_ZN35_$LT$core..ptr..Unique$LT$T$GT$$GT$6as_ptr17hba5c059b04d49cd3E, .Lfunc_end21-_ZN35_$LT$core..ptr..Unique$LT$T$GT$$GT$6as_ptr17hba5c059b04d49cd3E
	.cfi_endproc

	.section	".text._ZN35_$LT$core..ptr..Unique$LT$T$GT$$GT$6as_ptr17he176ab834ba1e1caE","ax",@progbits
	.p2align	4, 0x90
	.type	_ZN35_$LT$core..ptr..Unique$LT$T$GT$$GT$6as_ptr17he176ab834ba1e1caE,@function
_ZN35_$LT$core..ptr..Unique$LT$T$GT$$GT$6as_ptr17he176ab834ba1e1caE:
	.cfi_startproc
	movq	%rdi, %rax
	retq
.Lfunc_end22:
	.size	_ZN35_$LT$core..ptr..Unique$LT$T$GT$$GT$6as_ptr17he176ab834ba1e1caE, .Lfunc_end22-_ZN35_$LT$core..ptr..Unique$LT$T$GT$$GT$6as_ptr17he176ab834ba1e1caE
	.cfi_endproc

	.section	".text._ZN36_$LT$T$u20$as$u20$core..any..Any$GT$11get_type_id17h5a59f7c090ad2728E","ax",@progbits
	.p2align	4, 0x90
	.type	_ZN36_$LT$T$u20$as$u20$core..any..Any$GT$11get_type_id17h5a59f7c090ad2728E,@function
_ZN36_$LT$T$u20$as$u20$core..any..Any$GT$11get_type_id17h5a59f7c090ad2728E:
	.cfi_startproc
	subq	$24, %rsp
	.cfi_def_cfa_offset 32
	movq	%rdi, 16(%rsp)
	callq	_ZN4core3any6TypeId2of17h04b644bb8574a80cE
	movq	%rax, 8(%rsp)
	movq	8(%rsp), %rax
	addq	$24, %rsp
	.cfi_def_cfa_offset 8
	retq
.Lfunc_end23:
	.size	_ZN36_$LT$T$u20$as$u20$core..any..Any$GT$11get_type_id17h5a59f7c090ad2728E, .Lfunc_end23-_ZN36_$LT$T$u20$as$u20$core..any..Any$GT$11get_type_id17h5a59f7c090ad2728E
	.cfi_endproc

	.section	".text._ZN36_$LT$T$u20$as$u20$core..any..Any$GT$11get_type_id17h5df9a28c4ad00c02E","ax",@progbits
	.p2align	4, 0x90
	.type	_ZN36_$LT$T$u20$as$u20$core..any..Any$GT$11get_type_id17h5df9a28c4ad00c02E,@function
_ZN36_$LT$T$u20$as$u20$core..any..Any$GT$11get_type_id17h5df9a28c4ad00c02E:
	.cfi_startproc
	subq	$24, %rsp
	.cfi_def_cfa_offset 32
	movq	%rdi, 16(%rsp)
	callq	_ZN4core3any6TypeId2of17h3027112c41a8baf2E
	movq	%rax, 8(%rsp)
	movq	8(%rsp), %rax
	addq	$24, %rsp
	.cfi_def_cfa_offset 8
	retq
.Lfunc_end24:
	.size	_ZN36_$LT$T$u20$as$u20$core..any..Any$GT$11get_type_id17h5df9a28c4ad00c02E, .Lfunc_end24-_ZN36_$LT$T$u20$as$u20$core..any..Any$GT$11get_type_id17h5df9a28c4ad00c02E
	.cfi_endproc

	.section	".text._ZN36_$LT$core..ptr..NonNull$LT$T$GT$$GT$13new_unchecked17h397fa1f83e5536bfE","ax",@progbits
	.p2align	4, 0x90
	.type	_ZN36_$LT$core..ptr..NonNull$LT$T$GT$$GT$13new_unchecked17h397fa1f83e5536bfE,@function
_ZN36_$LT$core..ptr..NonNull$LT$T$GT$$GT$13new_unchecked17h397fa1f83e5536bfE:
	.cfi_startproc
	pushq	%rax
	.cfi_def_cfa_offset 16
	movq	%rdi, (%rsp)
	movq	(%rsp), %rax
	popq	%rcx
	.cfi_def_cfa_offset 8
	retq
.Lfunc_end25:
	.size	_ZN36_$LT$core..ptr..NonNull$LT$T$GT$$GT$13new_unchecked17h397fa1f83e5536bfE, .Lfunc_end25-_ZN36_$LT$core..ptr..NonNull$LT$T$GT$$GT$13new_unchecked17h397fa1f83e5536bfE
	.cfi_endproc

	.section	".text._ZN36_$LT$core..ptr..NonNull$LT$T$GT$$GT$13new_unchecked17h440a3dd8f9b3cbb3E","ax",@progbits
	.p2align	4, 0x90
	.type	_ZN36_$LT$core..ptr..NonNull$LT$T$GT$$GT$13new_unchecked17h440a3dd8f9b3cbb3E,@function
_ZN36_$LT$core..ptr..NonNull$LT$T$GT$$GT$13new_unchecked17h440a3dd8f9b3cbb3E:
	.cfi_startproc
	pushq	%rax
	.cfi_def_cfa_offset 16
	movq	%rdi, (%rsp)
	movq	(%rsp), %rax
	popq	%rcx
	.cfi_def_cfa_offset 8
	retq
.Lfunc_end26:
	.size	_ZN36_$LT$core..ptr..NonNull$LT$T$GT$$GT$13new_unchecked17h440a3dd8f9b3cbb3E, .Lfunc_end26-_ZN36_$LT$core..ptr..NonNull$LT$T$GT$$GT$13new_unchecked17h440a3dd8f9b3cbb3E
	.cfi_endproc

	.section	".text._ZN36_$LT$core..ptr..NonNull$LT$T$GT$$GT$13new_unchecked17h5d7d331ed09c4e29E","ax",@progbits
	.p2align	4, 0x90
	.type	_ZN36_$LT$core..ptr..NonNull$LT$T$GT$$GT$13new_unchecked17h5d7d331ed09c4e29E,@function
_ZN36_$LT$core..ptr..NonNull$LT$T$GT$$GT$13new_unchecked17h5d7d331ed09c4e29E:
	.cfi_startproc
	pushq	%rax
	.cfi_def_cfa_offset 16
	movq	%rdi, (%rsp)
	movq	(%rsp), %rax
	popq	%rcx
	.cfi_def_cfa_offset 8
	retq
.Lfunc_end27:
	.size	_ZN36_$LT$core..ptr..NonNull$LT$T$GT$$GT$13new_unchecked17h5d7d331ed09c4e29E, .Lfunc_end27-_ZN36_$LT$core..ptr..NonNull$LT$T$GT$$GT$13new_unchecked17h5d7d331ed09c4e29E
	.cfi_endproc

	.section	".text._ZN36_$LT$core..ptr..NonNull$LT$T$GT$$GT$3new17hac64a586f0fd2e6aE","ax",@progbits
	.p2align	4, 0x90
	.type	_ZN36_$LT$core..ptr..NonNull$LT$T$GT$$GT$3new17hac64a586f0fd2e6aE,@function
_ZN36_$LT$core..ptr..NonNull$LT$T$GT$$GT$3new17hac64a586f0fd2e6aE:
	.cfi_startproc
	subq	$40, %rsp
	.cfi_def_cfa_offset 48
	movq	%rdi, 24(%rsp)
	callq	_ZN4core3ptr31_$LT$impl$u20$$BP$mut$u20$T$GT$7is_null17h035b50f84cd8fd06E
	movb	%al, 23(%rsp)
	movb	23(%rsp), %al
	xorb	$-1, %al
	testb	$1, %al
	jne	.LBB28_2
	jmp	.LBB28_3
.LBB28_2:
	movq	24(%rsp), %rdi
	callq	_ZN36_$LT$core..ptr..NonNull$LT$T$GT$$GT$13new_unchecked17h5d7d331ed09c4e29E
	movq	%rax, 8(%rsp)
	jmp	.LBB28_4
.LBB28_3:
	movq	$0, 32(%rsp)
	jmp	.LBB28_5
.LBB28_4:
	movq	8(%rsp), %rax
	movq	%rax, 32(%rsp)
.LBB28_5:
	movq	32(%rsp), %rax
	addq	$40, %rsp
	.cfi_def_cfa_offset 8
	retq
.Lfunc_end28:
	.size	_ZN36_$LT$core..ptr..NonNull$LT$T$GT$$GT$3new17hac64a586f0fd2e6aE, .Lfunc_end28-_ZN36_$LT$core..ptr..NonNull$LT$T$GT$$GT$3new17hac64a586f0fd2e6aE
	.cfi_endproc

	.section	".text._ZN36_$LT$core..ptr..NonNull$LT$T$GT$$GT$4cast17h228b148c78a28fabE","ax",@progbits
	.p2align	4, 0x90
	.type	_ZN36_$LT$core..ptr..NonNull$LT$T$GT$$GT$4cast17h228b148c78a28fabE,@function
_ZN36_$LT$core..ptr..NonNull$LT$T$GT$$GT$4cast17h228b148c78a28fabE:
	.cfi_startproc
	subq	$24, %rsp
	.cfi_def_cfa_offset 32
	callq	_ZN36_$LT$core..ptr..NonNull$LT$T$GT$$GT$6as_ptr17h8ae30db3898b1905E
	movq	%rax, 16(%rsp)
	movq	16(%rsp), %rdi
	callq	_ZN36_$LT$core..ptr..NonNull$LT$T$GT$$GT$13new_unchecked17h440a3dd8f9b3cbb3E
	movq	%rax, 8(%rsp)
	movq	8(%rsp), %rax
	addq	$24, %rsp
	.cfi_def_cfa_offset 8
	retq
.Lfunc_end29:
	.size	_ZN36_$LT$core..ptr..NonNull$LT$T$GT$$GT$4cast17h228b148c78a28fabE, .Lfunc_end29-_ZN36_$LT$core..ptr..NonNull$LT$T$GT$$GT$4cast17h228b148c78a28fabE
	.cfi_endproc

	.section	".text._ZN36_$LT$core..ptr..NonNull$LT$T$GT$$GT$4cast17h30dc75a78800d755E","ax",@progbits
	.p2align	4, 0x90
	.type	_ZN36_$LT$core..ptr..NonNull$LT$T$GT$$GT$4cast17h30dc75a78800d755E,@function
_ZN36_$LT$core..ptr..NonNull$LT$T$GT$$GT$4cast17h30dc75a78800d755E:
	.cfi_startproc
	subq	$24, %rsp
	.cfi_def_cfa_offset 32
	callq	_ZN36_$LT$core..ptr..NonNull$LT$T$GT$$GT$6as_ptr17hb2b6b1c822034154E
	movq	%rax, 16(%rsp)
	movq	16(%rsp), %rax
	movq	%rax, %rdi
	callq	_ZN36_$LT$core..ptr..NonNull$LT$T$GT$$GT$13new_unchecked17h5d7d331ed09c4e29E
	movq	%rax, 8(%rsp)
	movq	8(%rsp), %rax
	addq	$24, %rsp
	.cfi_def_cfa_offset 8
	retq
.Lfunc_end30:
	.size	_ZN36_$LT$core..ptr..NonNull$LT$T$GT$$GT$4cast17h30dc75a78800d755E, .Lfunc_end30-_ZN36_$LT$core..ptr..NonNull$LT$T$GT$$GT$4cast17h30dc75a78800d755E
	.cfi_endproc

	.section	".text._ZN36_$LT$core..ptr..NonNull$LT$T$GT$$GT$4cast17h7e0212577170c99cE","ax",@progbits
	.p2align	4, 0x90
	.type	_ZN36_$LT$core..ptr..NonNull$LT$T$GT$$GT$4cast17h7e0212577170c99cE,@function
_ZN36_$LT$core..ptr..NonNull$LT$T$GT$$GT$4cast17h7e0212577170c99cE:
	.cfi_startproc
	subq	$24, %rsp
	.cfi_def_cfa_offset 32
	callq	_ZN36_$LT$core..ptr..NonNull$LT$T$GT$$GT$6as_ptr17h8ae30db3898b1905E
	movq	%rax, 16(%rsp)
	movq	16(%rsp), %rax
	movq	%rax, %rdi
	callq	_ZN36_$LT$core..ptr..NonNull$LT$T$GT$$GT$13new_unchecked17h397fa1f83e5536bfE
	movq	%rax, 8(%rsp)
	movq	8(%rsp), %rax
	addq	$24, %rsp
	.cfi_def_cfa_offset 8
	retq
.Lfunc_end31:
	.size	_ZN36_$LT$core..ptr..NonNull$LT$T$GT$$GT$4cast17h7e0212577170c99cE, .Lfunc_end31-_ZN36_$LT$core..ptr..NonNull$LT$T$GT$$GT$4cast17h7e0212577170c99cE
	.cfi_endproc

	.section	".text._ZN36_$LT$core..ptr..NonNull$LT$T$GT$$GT$4cast17hf723108d0c9fd30cE","ax",@progbits
	.p2align	4, 0x90
	.type	_ZN36_$LT$core..ptr..NonNull$LT$T$GT$$GT$4cast17hf723108d0c9fd30cE,@function
_ZN36_$LT$core..ptr..NonNull$LT$T$GT$$GT$4cast17hf723108d0c9fd30cE:
	.cfi_startproc
	subq	$24, %rsp
	.cfi_def_cfa_offset 32
	callq	_ZN36_$LT$core..ptr..NonNull$LT$T$GT$$GT$6as_ptr17h6127022995824986E
	movq	%rax, 16(%rsp)
	movq	16(%rsp), %rdi
	callq	_ZN36_$LT$core..ptr..NonNull$LT$T$GT$$GT$13new_unchecked17h5d7d331ed09c4e29E
	movq	%rax, 8(%rsp)
	movq	8(%rsp), %rax
	addq	$24, %rsp
	.cfi_def_cfa_offset 8
	retq
.Lfunc_end32:
	.size	_ZN36_$LT$core..ptr..NonNull$LT$T$GT$$GT$4cast17hf723108d0c9fd30cE, .Lfunc_end32-_ZN36_$LT$core..ptr..NonNull$LT$T$GT$$GT$4cast17hf723108d0c9fd30cE
	.cfi_endproc

	.section	".text._ZN36_$LT$core..ptr..NonNull$LT$T$GT$$GT$6as_ptr17h6127022995824986E","ax",@progbits
	.p2align	4, 0x90
	.type	_ZN36_$LT$core..ptr..NonNull$LT$T$GT$$GT$6as_ptr17h6127022995824986E,@function
_ZN36_$LT$core..ptr..NonNull$LT$T$GT$$GT$6as_ptr17h6127022995824986E:
	.cfi_startproc
	movq	%rdi, %rax
	retq
.Lfunc_end33:
	.size	_ZN36_$LT$core..ptr..NonNull$LT$T$GT$$GT$6as_ptr17h6127022995824986E, .Lfunc_end33-_ZN36_$LT$core..ptr..NonNull$LT$T$GT$$GT$6as_ptr17h6127022995824986E
	.cfi_endproc

	.section	".text._ZN36_$LT$core..ptr..NonNull$LT$T$GT$$GT$6as_ptr17h8ae30db3898b1905E","ax",@progbits
	.p2align	4, 0x90
	.type	_ZN36_$LT$core..ptr..NonNull$LT$T$GT$$GT$6as_ptr17h8ae30db3898b1905E,@function
_ZN36_$LT$core..ptr..NonNull$LT$T$GT$$GT$6as_ptr17h8ae30db3898b1905E:
	.cfi_startproc
	movq	%rdi, %rax
	retq
.Lfunc_end34:
	.size	_ZN36_$LT$core..ptr..NonNull$LT$T$GT$$GT$6as_ptr17h8ae30db3898b1905E, .Lfunc_end34-_ZN36_$LT$core..ptr..NonNull$LT$T$GT$$GT$6as_ptr17h8ae30db3898b1905E
	.cfi_endproc

	.section	".text._ZN36_$LT$core..ptr..NonNull$LT$T$GT$$GT$6as_ptr17hb2b6b1c822034154E","ax",@progbits
	.p2align	4, 0x90
	.type	_ZN36_$LT$core..ptr..NonNull$LT$T$GT$$GT$6as_ptr17hb2b6b1c822034154E,@function
_ZN36_$LT$core..ptr..NonNull$LT$T$GT$$GT$6as_ptr17hb2b6b1c822034154E:
	.cfi_startproc
	movq	%rdi, %rax
	retq
.Lfunc_end35:
	.size	_ZN36_$LT$core..ptr..NonNull$LT$T$GT$$GT$6as_ptr17hb2b6b1c822034154E, .Lfunc_end35-_ZN36_$LT$core..ptr..NonNull$LT$T$GT$$GT$6as_ptr17hb2b6b1c822034154E
	.cfi_endproc

	.section	".text._ZN36_$LT$core..ptr..NonNull$LT$T$GT$$GT$6as_ptr17hb968d918a90267afE","ax",@progbits
	.p2align	4, 0x90
	.type	_ZN36_$LT$core..ptr..NonNull$LT$T$GT$$GT$6as_ptr17hb968d918a90267afE,@function
_ZN36_$LT$core..ptr..NonNull$LT$T$GT$$GT$6as_ptr17hb968d918a90267afE:
	.cfi_startproc
	movq	%rdi, %rax
	movq	%rsi, %rdx
	retq
.Lfunc_end36:
	.size	_ZN36_$LT$core..ptr..NonNull$LT$T$GT$$GT$6as_ptr17hb968d918a90267afE, .Lfunc_end36-_ZN36_$LT$core..ptr..NonNull$LT$T$GT$$GT$6as_ptr17hb968d918a90267afE
	.cfi_endproc

	.section	".text._ZN36_$LT$core..ptr..NonNull$LT$T$GT$$GT$8dangling17hb392d6046d914db8E","ax",@progbits
	.p2align	4, 0x90
	.type	_ZN36_$LT$core..ptr..NonNull$LT$T$GT$$GT$8dangling17hb392d6046d914db8E,@function
_ZN36_$LT$core..ptr..NonNull$LT$T$GT$$GT$8dangling17hb392d6046d914db8E:
	.cfi_startproc
	subq	$24, %rsp
	.cfi_def_cfa_offset 32
	callq	_ZN4core3mem8align_of17h6cbf56e216ba83fbE
	movq	%rax, 16(%rsp)
	movq	16(%rsp), %rdi
	callq	_ZN36_$LT$core..ptr..NonNull$LT$T$GT$$GT$13new_unchecked17h440a3dd8f9b3cbb3E
	movq	%rax, 8(%rsp)
	movq	8(%rsp), %rax
	addq	$24, %rsp
	.cfi_def_cfa_offset 8
	retq
.Lfunc_end37:
	.size	_ZN36_$LT$core..ptr..NonNull$LT$T$GT$$GT$8dangling17hb392d6046d914db8E, .Lfunc_end37-_ZN36_$LT$core..ptr..NonNull$LT$T$GT$$GT$8dangling17hb392d6046d914db8E
	.cfi_endproc

	.section	".text._ZN38_$LT$core..option..Option$LT$T$GT$$GT$14unwrap_or_else17h0da27905250a7077E","ax",@progbits
	.p2align	4, 0x90
	.type	_ZN38_$LT$core..option..Option$LT$T$GT$$GT$14unwrap_or_else17h0da27905250a7077E,@function
_ZN38_$LT$core..option..Option$LT$T$GT$$GT$14unwrap_or_else17h0da27905250a7077E:
.Lfunc_begin2:
	.cfi_startproc
	.cfi_personality 155, DW.ref.rust_eh_personality
	.cfi_lsda 27, .Lexception2
	subq	$72, %rsp
	.cfi_def_cfa_offset 80
	movq	%rdi, 24(%rsp)
	movq	%rsi, 32(%rsp)
	movb	$0, 54(%rsp)
	movb	$0, 55(%rsp)
	movb	$1, 54(%rsp)
	movb	$1, 55(%rsp)
	movq	24(%rsp), %rsi
	testq	%rsi, %rsi
	movq	%rsi, 16(%rsp)
	je	.LBB38_2
	jmp	.LBB38_18
.LBB38_18:
	movq	16(%rsp), %rax
	subq	$1, %rax
	movq	%rax, 8(%rsp)
	je	.LBB38_4
	jmp	.LBB38_3
.LBB38_1:
	movq	56(%rsp), %rdi
	callq	_Unwind_Resume@PLT
	ud2
.LBB38_2:
	movb	$0, 55(%rsp)
.Ltmp47:
	callq	_ZN49_$LT$alloc..raw_vec..RawVec$LT$T$C$$u20$A$GT$$GT$11allocate_in28_$u7b$$u7b$closure$u7d$$u7d$17h93267870cad68017E
.Ltmp48:
	movq	%rax, (%rsp)
	jmp	.LBB38_5
.LBB38_3:
	ud2
.LBB38_4:
	movb	$0, 54(%rsp)
	movq	32(%rsp), %rax
	movq	%rax, 40(%rsp)
	jmp	.LBB38_6
.LBB38_5:
	movq	(%rsp), %rax
	movq	%rax, 40(%rsp)
.LBB38_6:
	testb	$1, 55(%rsp)
	jne	.LBB38_12
.LBB38_7:
	cmpq	$1, 24(%rsp)
	je	.LBB38_14
	jmp	.LBB38_16
.LBB38_8:
	testb	$1, 54(%rsp)
	je	.LBB38_1
	movb	$0, 54(%rsp)
	jmp	.LBB38_1
.LBB38_10:
	jmp	.LBB38_1
.LBB38_11:
	cmpq	$1, 24(%rsp)
	je	.LBB38_8
	jmp	.LBB38_10
.LBB38_12:
	movb	$0, 55(%rsp)
	jmp	.LBB38_7
.LBB38_13:
	movq	40(%rsp), %rax
	addq	$72, %rsp
	.cfi_def_cfa_offset 8
	retq
.LBB38_14:
	.cfi_def_cfa_offset 80
	testb	$1, 54(%rsp)
	je	.LBB38_13
	movb	$0, 54(%rsp)
	jmp	.LBB38_13
.LBB38_16:
	jmp	.LBB38_13
.LBB38_17:
.Ltmp49:
	movl	%edx, %ecx
	movq	%rax, 56(%rsp)
	movl	%ecx, 64(%rsp)
	jmp	.LBB38_11
.Lfunc_end38:
	.size	_ZN38_$LT$core..option..Option$LT$T$GT$$GT$14unwrap_or_else17h0da27905250a7077E, .Lfunc_end38-_ZN38_$LT$core..option..Option$LT$T$GT$$GT$14unwrap_or_else17h0da27905250a7077E
	.cfi_endproc
	.section	.gcc_except_table,"a",@progbits
	.p2align	2
GCC_except_table38:
.Lexception2:
	.byte	255
	.byte	255
	.byte	1
	.uleb128 .Lcst_end2-.Lcst_begin2
.Lcst_begin2:
	.uleb128 .Lfunc_begin2-.Lfunc_begin2
	.uleb128 .Ltmp47-.Lfunc_begin2
	.byte	0
	.byte	0
	.uleb128 .Ltmp47-.Lfunc_begin2
	.uleb128 .Ltmp48-.Ltmp47
	.uleb128 .Ltmp49-.Lfunc_begin2
	.byte	0
.Lcst_end2:
	.p2align	2

	.section	".text._ZN38_$LT$core..option..Option$LT$T$GT$$GT$4take17h06b783296933462bE","ax",@progbits
	.p2align	4, 0x90
	.type	_ZN38_$LT$core..option..Option$LT$T$GT$$GT$4take17h06b783296933462bE,@function
_ZN38_$LT$core..option..Option$LT$T$GT$$GT$4take17h06b783296933462bE:
	.cfi_startproc
	subq	$40, %rsp
	.cfi_def_cfa_offset 48
	movq	$0, 24(%rsp)
	movq	24(%rsp), %rsi
	movq	32(%rsp), %rdx
	callq	_ZN4core3mem7replace17h5812c967a4a173cdE
	movq	%rax, 16(%rsp)
	movq	%rdx, 8(%rsp)
	movq	16(%rsp), %rax
	movq	8(%rsp), %rdx
	addq	$40, %rsp
	.cfi_def_cfa_offset 8
	retq
.Lfunc_end39:
	.size	_ZN38_$LT$core..option..Option$LT$T$GT$$GT$4take17h06b783296933462bE, .Lfunc_end39-_ZN38_$LT$core..option..Option$LT$T$GT$$GT$4take17h06b783296933462bE
	.cfi_endproc

	.section	".text._ZN38_$LT$core..option..Option$LT$T$GT$$GT$5ok_or17h9c98d7f9a8f501b2E","ax",@progbits
	.p2align	4, 0x90
	.type	_ZN38_$LT$core..option..Option$LT$T$GT$$GT$5ok_or17h9c98d7f9a8f501b2E,@function
_ZN38_$LT$core..option..Option$LT$T$GT$$GT$5ok_or17h9c98d7f9a8f501b2E:
	.cfi_startproc
	subq	$80, %rsp
	.cfi_def_cfa_offset 88
	movb	%cl, %al
	movq	%rdi, %r8
	movq	%rsi, 40(%rsp)
	movq	%rdx, 48(%rsp)
	movb	$0, 62(%rsp)
	movb	$0, 63(%rsp)
	movb	$1, 62(%rsp)
	movb	$1, 63(%rsp)
	movq	40(%rsp), %rdx
	testq	%rdx, %rdx
	movb	%al, 39(%rsp)
	movq	%r8, 24(%rsp)
	movq	%rdi, 16(%rsp)
	movq	%rdx, 8(%rsp)
	je	.LBB40_1
	jmp	.LBB40_11
.LBB40_11:
	movq	8(%rsp), %rax
	subq	$1, %rax
	movq	%rax, (%rsp)
	je	.LBB40_3
	jmp	.LBB40_2
.LBB40_1:
	movb	$0, 63(%rsp)
	movb	39(%rsp), %al
	andb	$1, %al
	movq	16(%rsp), %rcx
	movb	%al, 1(%rcx)
	movb	$1, (%rcx)
	jmp	.LBB40_4
.LBB40_2:
	ud2
.LBB40_3:
	movb	$0, 62(%rsp)
	movq	48(%rsp), %rax
	movq	16(%rsp), %rcx
	movq	%rax, 8(%rcx)
	movb	$0, (%rcx)
.LBB40_4:
	testb	$1, 63(%rsp)
	jne	.LBB40_6
.LBB40_5:
	cmpq	$1, 40(%rsp)
	je	.LBB40_8
	jmp	.LBB40_10
.LBB40_6:
	movb	$0, 63(%rsp)
	jmp	.LBB40_5
.LBB40_7:
	movq	24(%rsp), %rax
	addq	$80, %rsp
	.cfi_def_cfa_offset 8
	retq
.LBB40_8:
	.cfi_def_cfa_offset 88
	testb	$1, 62(%rsp)
	je	.LBB40_7
	movb	$0, 62(%rsp)
	jmp	.LBB40_7
.LBB40_10:
	jmp	.LBB40_7
.Lfunc_end40:
	.size	_ZN38_$LT$core..option..Option$LT$T$GT$$GT$5ok_or17h9c98d7f9a8f501b2E, .Lfunc_end40-_ZN38_$LT$core..option..Option$LT$T$GT$$GT$5ok_or17h9c98d7f9a8f501b2E
	.cfi_endproc

	.section	".text._ZN38_$LT$core..option..Option$LT$T$GT$$GT$5ok_or17he2d4e6eec513b6e1E","ax",@progbits
	.p2align	4, 0x90
	.type	_ZN38_$LT$core..option..Option$LT$T$GT$$GT$5ok_or17he2d4e6eec513b6e1E,@function
_ZN38_$LT$core..option..Option$LT$T$GT$$GT$5ok_or17he2d4e6eec513b6e1E:
	.cfi_startproc
	subq	$56, %rsp
	.cfi_def_cfa_offset 64
	movq	%rdi, 16(%rsp)
	movb	$0, 38(%rsp)
	movb	$0, 39(%rsp)
	movb	$1, 38(%rsp)
	movb	$1, 39(%rsp)
	movq	16(%rsp), %rdi
	testq	%rdi, %rdi
	setne	%al
	movzbl	%al, %ecx
	movl	%ecx, %edi
	movq	%rdi, 8(%rsp)
	je	.LBB41_1
	jmp	.LBB41_11
.LBB41_11:
	movq	8(%rsp), %rax
	subq	$1, %rax
	movq	%rax, (%rsp)
	je	.LBB41_3
	jmp	.LBB41_2
.LBB41_1:
	movb	$0, 39(%rsp)
	movq	$0, 24(%rsp)
	jmp	.LBB41_4
.LBB41_2:
	ud2
.LBB41_3:
	movb	$0, 38(%rsp)
	movq	16(%rsp), %rax
	movq	%rax, 24(%rsp)
.LBB41_4:
	testb	$1, 39(%rsp)
	jne	.LBB41_6
.LBB41_5:
	xorl	%eax, %eax
	movl	%eax, %ecx
	cmpq	$0, 16(%rsp)
	movl	$1, %edx
	cmoveq	%rcx, %rdx
	cmpq	$1, %rdx
	je	.LBB41_8
	jmp	.LBB41_10
.LBB41_6:
	movb	$0, 39(%rsp)
	jmp	.LBB41_5
.LBB41_7:
	movq	24(%rsp), %rax
	addq	$56, %rsp
	.cfi_def_cfa_offset 8
	retq
.LBB41_8:
	.cfi_def_cfa_offset 64
	testb	$1, 38(%rsp)
	je	.LBB41_7
	movb	$0, 38(%rsp)
	jmp	.LBB41_7
.LBB41_10:
	jmp	.LBB41_7
.Lfunc_end41:
	.size	_ZN38_$LT$core..option..Option$LT$T$GT$$GT$5ok_or17he2d4e6eec513b6e1E, .Lfunc_end41-_ZN38_$LT$core..option..Option$LT$T$GT$$GT$5ok_or17he2d4e6eec513b6e1E
	.cfi_endproc

	.section	".text._ZN38_$LT$core..option..Option$LT$T$GT$$GT$5ok_or17heec80dd4b7b4acb8E","ax",@progbits
	.p2align	4, 0x90
	.type	_ZN38_$LT$core..option..Option$LT$T$GT$$GT$5ok_or17heec80dd4b7b4acb8E,@function
_ZN38_$LT$core..option..Option$LT$T$GT$$GT$5ok_or17heec80dd4b7b4acb8E:
	.cfi_startproc
	subq	$72, %rsp
	.cfi_def_cfa_offset 80
	movq	%rdi, 16(%rsp)
	movq	%rsi, 24(%rsp)
	movb	$0, 54(%rsp)
	movb	$0, 55(%rsp)
	movb	$1, 54(%rsp)
	movb	$1, 55(%rsp)
	movq	16(%rsp), %rsi
	testq	%rsi, %rsi
	movq	%rsi, 8(%rsp)
	je	.LBB42_1
	jmp	.LBB42_11
.LBB42_11:
	movq	8(%rsp), %rax
	subq	$1, %rax
	movq	%rax, (%rsp)
	je	.LBB42_3
	jmp	.LBB42_2
.LBB42_1:
	movb	$0, 55(%rsp)
	movq	$1, 32(%rsp)
	jmp	.LBB42_4
.LBB42_2:
	ud2
.LBB42_3:
	movb	$0, 54(%rsp)
	movq	24(%rsp), %rax
	movq	%rax, 40(%rsp)
	movq	$0, 32(%rsp)
.LBB42_4:
	testb	$1, 55(%rsp)
	jne	.LBB42_6
.LBB42_5:
	cmpq	$1, 16(%rsp)
	je	.LBB42_8
	jmp	.LBB42_10
.LBB42_6:
	movb	$0, 55(%rsp)
	jmp	.LBB42_5
.LBB42_7:
	movq	32(%rsp), %rax
	movq	40(%rsp), %rdx
	addq	$72, %rsp
	.cfi_def_cfa_offset 8
	retq
.LBB42_8:
	.cfi_def_cfa_offset 80
	testb	$1, 54(%rsp)
	je	.LBB42_7
	movb	$0, 54(%rsp)
	jmp	.LBB42_7
.LBB42_10:
	jmp	.LBB42_7
.Lfunc_end42:
	.size	_ZN38_$LT$core..option..Option$LT$T$GT$$GT$5ok_or17heec80dd4b7b4acb8E, .Lfunc_end42-_ZN38_$LT$core..option..Option$LT$T$GT$$GT$5ok_or17heec80dd4b7b4acb8E
	.cfi_endproc

	.section	.text._ZN3std2rt10lang_start17h99f160cd964dc36eE,"ax",@progbits
	.hidden	_ZN3std2rt10lang_start17h99f160cd964dc36eE
	.globl	_ZN3std2rt10lang_start17h99f160cd964dc36eE
	.p2align	4, 0x90
	.type	_ZN3std2rt10lang_start17h99f160cd964dc36eE,@function
_ZN3std2rt10lang_start17h99f160cd964dc36eE:
	.cfi_startproc
	subq	$40, %rsp
	.cfi_def_cfa_offset 48
	leaq	.L__unnamed_1(%rip), %rax
	movq	%rdi, 32(%rsp)
	leaq	32(%rsp), %rdi
	movq	%rsi, 24(%rsp)
	movq	%rax, %rsi
	movq	24(%rsp), %rax
	movq	%rdx, 16(%rsp)
	movq	%rax, %rdx
	movq	16(%rsp), %rcx
	callq	*_ZN3std2rt19lang_start_internal17he0d8d06abc6f912fE@GOTPCREL(%rip)
	movq	%rax, 8(%rsp)
	movq	8(%rsp), %rax
	addq	$40, %rsp
	.cfi_def_cfa_offset 8
	retq
.Lfunc_end43:
	.size	_ZN3std2rt10lang_start17h99f160cd964dc36eE, .Lfunc_end43-_ZN3std2rt10lang_start17h99f160cd964dc36eE
	.cfi_endproc

	.section	".text._ZN3std2rt10lang_start28_$u7b$$u7b$closure$u7d$$u7d$17h313fde1018e21b47E","ax",@progbits
	.p2align	4, 0x90
	.type	_ZN3std2rt10lang_start28_$u7b$$u7b$closure$u7d$$u7d$17h313fde1018e21b47E,@function
_ZN3std2rt10lang_start28_$u7b$$u7b$closure$u7d$$u7d$17h313fde1018e21b47E:
	.cfi_startproc
	pushq	%rax
	.cfi_def_cfa_offset 16
	callq	*(%rdi)
	callq	_ZN54_$LT$$LP$$RP$$u20$as$u20$std..process..Termination$GT$6report17h5f940ac8b66f7b39E
	movl	%eax, 4(%rsp)
	movl	4(%rsp), %eax
	popq	%rcx
	.cfi_def_cfa_offset 8
	retq
.Lfunc_end44:
	.size	_ZN3std2rt10lang_start28_$u7b$$u7b$closure$u7d$$u7d$17h313fde1018e21b47E, .Lfunc_end44-_ZN3std2rt10lang_start28_$u7b$$u7b$closure$u7d$$u7d$17h313fde1018e21b47E
	.cfi_endproc

	.section	.text._ZN3std3sys4unix7process14process_common8ExitCode6as_i3217h0108fb5ebe3094f0E,"ax",@progbits
	.p2align	4, 0x90
	.type	_ZN3std3sys4unix7process14process_common8ExitCode6as_i3217h0108fb5ebe3094f0E,@function
_ZN3std3sys4unix7process14process_common8ExitCode6as_i3217h0108fb5ebe3094f0E:
	.cfi_startproc
	movzbl	(%rdi), %eax
	retq
.Lfunc_end45:
	.size	_ZN3std3sys4unix7process14process_common8ExitCode6as_i3217h0108fb5ebe3094f0E, .Lfunc_end45-_ZN3std3sys4unix7process14process_common8ExitCode6as_i3217h0108fb5ebe3094f0E
	.cfi_endproc

	.section	.text._ZN3std9panicking11begin_panic17h318468da7d772df8E,"ax",@progbits
	.p2align	4, 0x90
	.type	_ZN3std9panicking11begin_panic17h318468da7d772df8E,@function
_ZN3std9panicking11begin_panic17h318468da7d772df8E:
.Lfunc_begin3:
	.cfi_startproc
	.cfi_personality 155, DW.ref.rust_eh_personality
	.cfi_lsda 27, .Lexception3
	subq	$56, %rsp
	.cfi_def_cfa_offset 64
	movq	%rdx, 8(%rsp)
	callq	_ZN59_$LT$std..panicking..begin_panic..PanicPayload$LT$A$GT$$GT$3new17h4c8a0907a1c6bcfaE
	movq	%rdx, 24(%rsp)
	movq	%rax, 16(%rsp)
	jmp	.LBB46_3
.LBB46_1:
	movq	40(%rsp), %rdi
	callq	_Unwind_Resume@PLT
	ud2
.LBB46_2:
	jmp	.LBB46_1
.LBB46_3:
	movq	$0, 32(%rsp)
	movq	32(%rsp), %rdx
.Ltmp50:
	leaq	.L__unnamed_2(%rip), %rsi
	movq	_ZN3std9panicking20rust_panic_with_hook17h744417edfe714d72E@GOTPCREL(%rip), %rax
	leaq	16(%rsp), %rdi
	movq	8(%rsp), %rcx
	callq	*%rax
.Ltmp51:
	jmp	.LBB46_4
.LBB46_4:
	ud2
.LBB46_5:
.Ltmp52:
	movl	%edx, %ecx
	movq	%rax, 40(%rsp)
	movl	%ecx, 48(%rsp)
	jmp	.LBB46_2
.Lfunc_end46:
	.size	_ZN3std9panicking11begin_panic17h318468da7d772df8E, .Lfunc_end46-_ZN3std9panicking11begin_panic17h318468da7d772df8E
	.cfi_endproc
	.section	.gcc_except_table,"a",@progbits
	.p2align	2
GCC_except_table46:
.Lexception3:
	.byte	255
	.byte	255
	.byte	1
	.uleb128 .Lcst_end3-.Lcst_begin3
.Lcst_begin3:
	.uleb128 .Lfunc_begin3-.Lfunc_begin3
	.uleb128 .Ltmp50-.Lfunc_begin3
	.byte	0
	.byte	0
	.uleb128 .Ltmp50-.Lfunc_begin3
	.uleb128 .Ltmp51-.Ltmp50
	.uleb128 .Ltmp52-.Lfunc_begin3
	.byte	0
.Lcst_end3:
	.p2align	2

	.section	".text._ZN40_$LT$alloc..raw_vec..RawVec$LT$T$GT$$GT$13with_capacity17h6fdac0df5ba31109E","ax",@progbits
	.p2align	4, 0x90
	.type	_ZN40_$LT$alloc..raw_vec..RawVec$LT$T$GT$$GT$13with_capacity17h6fdac0df5ba31109E,@function
_ZN40_$LT$alloc..raw_vec..RawVec$LT$T$GT$$GT$13with_capacity17h6fdac0df5ba31109E:
	.cfi_startproc
	subq	$24, %rsp
	.cfi_def_cfa_offset 32
	xorl	%esi, %esi
	callq	_ZN49_$LT$alloc..raw_vec..RawVec$LT$T$C$$u20$A$GT$$GT$11allocate_in17h4039496fce6b4447E
	movq	%rax, 8(%rsp)
	movq	%rdx, (%rsp)
	movq	8(%rsp), %rax
	movq	(%rsp), %rdx
	addq	$24, %rsp
	.cfi_def_cfa_offset 8
	retq
.Lfunc_end47:
	.size	_ZN40_$LT$alloc..raw_vec..RawVec$LT$T$GT$$GT$13with_capacity17h6fdac0df5ba31109E, .Lfunc_end47-_ZN40_$LT$alloc..raw_vec..RawVec$LT$T$GT$$GT$13with_capacity17h6fdac0df5ba31109E
	.cfi_endproc

	.section	".text._ZN40_$LT$alloc..raw_vec..RawVec$LT$T$GT$$GT$14from_raw_parts17h5c04b26b06025ea6E","ax",@progbits
	.p2align	4, 0x90
	.type	_ZN40_$LT$alloc..raw_vec..RawVec$LT$T$GT$$GT$14from_raw_parts17h5c04b26b06025ea6E,@function
_ZN40_$LT$alloc..raw_vec..RawVec$LT$T$GT$$GT$14from_raw_parts17h5c04b26b06025ea6E:
	.cfi_startproc
	subq	$40, %rsp
	.cfi_def_cfa_offset 48
	movq	%rsi, 8(%rsp)
	callq	_ZN35_$LT$core..ptr..Unique$LT$T$GT$$GT$13new_unchecked17hb1f31102378bb516E
	movq	%rax, (%rsp)
	movq	(%rsp), %rax
	movq	%rax, 16(%rsp)
	movq	8(%rsp), %rcx
	movq	%rcx, 24(%rsp)
	movq	16(%rsp), %rax
	movq	24(%rsp), %rdx
	addq	$40, %rsp
	.cfi_def_cfa_offset 8
	retq
.Lfunc_end48:
	.size	_ZN40_$LT$alloc..raw_vec..RawVec$LT$T$GT$$GT$14from_raw_parts17h5c04b26b06025ea6E, .Lfunc_end48-_ZN40_$LT$alloc..raw_vec..RawVec$LT$T$GT$$GT$14from_raw_parts17h5c04b26b06025ea6E
	.cfi_endproc

	.section	".text._ZN41_$LT$bool$u20$as$u20$core..fmt..Debug$GT$3fmt17hdcd0f611e447f0edE","ax",@progbits
	.p2align	4, 0x90
	.type	_ZN41_$LT$bool$u20$as$u20$core..fmt..Debug$GT$3fmt17hdcd0f611e447f0edE,@function
_ZN41_$LT$bool$u20$as$u20$core..fmt..Debug$GT$3fmt17hdcd0f611e447f0edE:
	.cfi_startproc
	pushq	%rax
	.cfi_def_cfa_offset 16
	callq	*_ZN43_$LT$bool$u20$as$u20$core..fmt..Display$GT$3fmt17hb47911a3f110d3f1E@GOTPCREL(%rip)
	movb	%al, 7(%rsp)
	movb	7(%rsp), %al
	andb	$1, %al
	movzbl	%al, %eax
	popq	%rcx
	.cfi_def_cfa_offset 8
	retq
.Lfunc_end49:
	.size	_ZN41_$LT$bool$u20$as$u20$core..fmt..Debug$GT$3fmt17hdcd0f611e447f0edE, .Lfunc_end49-_ZN41_$LT$bool$u20$as$u20$core..fmt..Debug$GT$3fmt17hdcd0f611e447f0edE
	.cfi_endproc

	.section	".text._ZN42_$LT$$RF$T$u20$as$u20$core..fmt..Debug$GT$3fmt17h68330b4f41214d33E","ax",@progbits
	.p2align	4, 0x90
	.type	_ZN42_$LT$$RF$T$u20$as$u20$core..fmt..Debug$GT$3fmt17h68330b4f41214d33E,@function
_ZN42_$LT$$RF$T$u20$as$u20$core..fmt..Debug$GT$3fmt17h68330b4f41214d33E:
	.cfi_startproc
	pushq	%rax
	.cfi_def_cfa_offset 16
	movq	(%rdi), %rdi
	callq	_ZN4core3fmt3num52_$LT$impl$u20$core..fmt..Debug$u20$for$u20$usize$GT$3fmt17h816529966a5cce0bE
	movb	%al, 7(%rsp)
	movb	7(%rsp), %al
	andb	$1, %al
	movzbl	%al, %eax
	popq	%rcx
	.cfi_def_cfa_offset 8
	retq
.Lfunc_end50:
	.size	_ZN42_$LT$$RF$T$u20$as$u20$core..fmt..Debug$GT$3fmt17h68330b4f41214d33E, .Lfunc_end50-_ZN42_$LT$$RF$T$u20$as$u20$core..fmt..Debug$GT$3fmt17h68330b4f41214d33E
	.cfi_endproc

	.section	".text._ZN42_$LT$$RF$T$u20$as$u20$core..fmt..Debug$GT$3fmt17h924eab6f9519b597E","ax",@progbits
	.p2align	4, 0x90
	.type	_ZN42_$LT$$RF$T$u20$as$u20$core..fmt..Debug$GT$3fmt17h924eab6f9519b597E,@function
_ZN42_$LT$$RF$T$u20$as$u20$core..fmt..Debug$GT$3fmt17h924eab6f9519b597E:
	.cfi_startproc
	pushq	%rax
	.cfi_def_cfa_offset 16
	movq	(%rdi), %rdi
	callq	_ZN42_$LT$$RF$T$u20$as$u20$core..fmt..Debug$GT$3fmt17hff774ce24044a770E
	movb	%al, 7(%rsp)
	movb	7(%rsp), %al
	andb	$1, %al
	movzbl	%al, %eax
	popq	%rcx
	.cfi_def_cfa_offset 8
	retq
.Lfunc_end51:
	.size	_ZN42_$LT$$RF$T$u20$as$u20$core..fmt..Debug$GT$3fmt17h924eab6f9519b597E, .Lfunc_end51-_ZN42_$LT$$RF$T$u20$as$u20$core..fmt..Debug$GT$3fmt17h924eab6f9519b597E
	.cfi_endproc

	.section	".text._ZN42_$LT$$RF$T$u20$as$u20$core..fmt..Debug$GT$3fmt17h9c1145ac3d79beabE","ax",@progbits
	.p2align	4, 0x90
	.type	_ZN42_$LT$$RF$T$u20$as$u20$core..fmt..Debug$GT$3fmt17h9c1145ac3d79beabE,@function
_ZN42_$LT$$RF$T$u20$as$u20$core..fmt..Debug$GT$3fmt17h9c1145ac3d79beabE:
	.cfi_startproc
	pushq	%rax
	.cfi_def_cfa_offset 16
	movq	(%rdi), %rdi
	callq	_ZN59_$LT$$LP$T10$C$$u20$T11$RP$$u20$as$u20$core..fmt..Debug$GT$3fmt17hd8928296a1872954E
	movb	%al, 7(%rsp)
	movb	7(%rsp), %al
	andb	$1, %al
	movzbl	%al, %eax
	popq	%rcx
	.cfi_def_cfa_offset 8
	retq
.Lfunc_end52:
	.size	_ZN42_$LT$$RF$T$u20$as$u20$core..fmt..Debug$GT$3fmt17h9c1145ac3d79beabE, .Lfunc_end52-_ZN42_$LT$$RF$T$u20$as$u20$core..fmt..Debug$GT$3fmt17h9c1145ac3d79beabE
	.cfi_endproc

	.section	".text._ZN42_$LT$$RF$T$u20$as$u20$core..fmt..Debug$GT$3fmt17hd8db85a8153705ebE","ax",@progbits
	.p2align	4, 0x90
	.type	_ZN42_$LT$$RF$T$u20$as$u20$core..fmt..Debug$GT$3fmt17hd8db85a8153705ebE,@function
_ZN42_$LT$$RF$T$u20$as$u20$core..fmt..Debug$GT$3fmt17hd8db85a8153705ebE:
	.cfi_startproc
	pushq	%rax
	.cfi_def_cfa_offset 16
	movq	(%rdi), %rdi
	callq	_ZN41_$LT$bool$u20$as$u20$core..fmt..Debug$GT$3fmt17hdcd0f611e447f0edE
	movb	%al, 7(%rsp)
	movb	7(%rsp), %al
	andb	$1, %al
	movzbl	%al, %eax
	popq	%rcx
	.cfi_def_cfa_offset 8
	retq
.Lfunc_end53:
	.size	_ZN42_$LT$$RF$T$u20$as$u20$core..fmt..Debug$GT$3fmt17hd8db85a8153705ebE, .Lfunc_end53-_ZN42_$LT$$RF$T$u20$as$u20$core..fmt..Debug$GT$3fmt17hd8db85a8153705ebE
	.cfi_endproc

	.section	".text._ZN42_$LT$$RF$T$u20$as$u20$core..fmt..Debug$GT$3fmt17hff774ce24044a770E","ax",@progbits
	.p2align	4, 0x90
	.type	_ZN42_$LT$$RF$T$u20$as$u20$core..fmt..Debug$GT$3fmt17hff774ce24044a770E,@function
_ZN42_$LT$$RF$T$u20$as$u20$core..fmt..Debug$GT$3fmt17hff774ce24044a770E:
	.cfi_startproc
	pushq	%rax
	.cfi_def_cfa_offset 16
	movq	(%rdi), %rdi
	callq	_ZN61_$LT$alloc..vec..Vec$LT$T$GT$$u20$as$u20$core..fmt..Debug$GT$3fmt17hba28a9a7e7a382afE
	movb	%al, 7(%rsp)
	movb	7(%rsp), %al
	andb	$1, %al
	movzbl	%al, %eax
	popq	%rcx
	.cfi_def_cfa_offset 8
	retq
.Lfunc_end54:
	.size	_ZN42_$LT$$RF$T$u20$as$u20$core..fmt..Debug$GT$3fmt17hff774ce24044a770E, .Lfunc_end54-_ZN42_$LT$$RF$T$u20$as$u20$core..fmt..Debug$GT$3fmt17hff774ce24044a770E
	.cfi_endproc

	.section	".text._ZN44_$LT$$RF$T$u20$as$u20$core..fmt..Display$GT$3fmt17h84154d96b4e9b5fcE","ax",@progbits
	.p2align	4, 0x90
	.type	_ZN44_$LT$$RF$T$u20$as$u20$core..fmt..Display$GT$3fmt17h84154d96b4e9b5fcE,@function
_ZN44_$LT$$RF$T$u20$as$u20$core..fmt..Display$GT$3fmt17h84154d96b4e9b5fcE:
	.cfi_startproc
	subq	$24, %rsp
	.cfi_def_cfa_offset 32
	movq	(%rdi), %rax
	movq	8(%rdi), %rdi
	movq	%rdi, 16(%rsp)
	movq	%rax, %rdi
	movq	16(%rsp), %rax
	movq	%rsi, 8(%rsp)
	movq	%rax, %rsi
	movq	8(%rsp), %rdx
	callq	*_ZN42_$LT$str$u20$as$u20$core..fmt..Display$GT$3fmt17h6800073ebe3ab897E@GOTPCREL(%rip)
	movb	%al, 7(%rsp)
	movb	7(%rsp), %al
	andb	$1, %al
	movzbl	%al, %eax
	addq	$24, %rsp
	.cfi_def_cfa_offset 8
	retq
.Lfunc_end55:
	.size	_ZN44_$LT$$RF$T$u20$as$u20$core..fmt..Display$GT$3fmt17h84154d96b4e9b5fcE, .Lfunc_end55-_ZN44_$LT$$RF$T$u20$as$u20$core..fmt..Display$GT$3fmt17h84154d96b4e9b5fcE
	.cfi_endproc

	.section	".text._ZN46_$LT$T$u20$as$u20$alloc..vec..SpecFromElem$GT$9from_elem17h3878d94421b83cf3E","ax",@progbits
	.p2align	4, 0x90
	.type	_ZN46_$LT$T$u20$as$u20$alloc..vec..SpecFromElem$GT$9from_elem17h3878d94421b83cf3E,@function
_ZN46_$LT$T$u20$as$u20$alloc..vec..SpecFromElem$GT$9from_elem17h3878d94421b83cf3E:
.Lfunc_begin4:
	.cfi_startproc
	.cfi_personality 155, DW.ref.rust_eh_personality
	.cfi_lsda 27, .Lexception4
	subq	$88, %rsp
	.cfi_def_cfa_offset 96
	movb	%sil, %al
	movq	%rdi, %rcx
	movb	$0, 71(%rsp)
	movb	$1, 71(%rsp)
.Ltmp53:
	leaq	40(%rsp), %r8
	movq	%rdi, 32(%rsp)
	movq	%r8, %rdi
	movq	%rdx, %rsi
	movb	%al, 31(%rsp)
	movq	%rcx, 16(%rsp)
	movq	%rdx, 8(%rsp)
	callq	_ZN33_$LT$alloc..vec..Vec$LT$T$GT$$GT$13with_capacity17hcb189d01c283be3fE
.Ltmp54:
	jmp	.LBB56_2
.LBB56_1:
	movq	72(%rsp), %rdi
	callq	_Unwind_Resume@PLT
	ud2
.LBB56_2:
	movb	$0, 71(%rsp)
	movb	31(%rsp), %al
	andb	$1, %al
	movb	%al, 70(%rsp)
	movzbl	70(%rsp), %edx
.Ltmp56:
	leaq	40(%rsp), %rdi
	movq	8(%rsp), %rsi
	callq	_ZN33_$LT$alloc..vec..Vec$LT$T$GT$$GT$11extend_with17hc5bedad45259f7f2E
.Ltmp57:
	jmp	.LBB56_4
.LBB56_3:
	leaq	40(%rsp), %rdi
	callq	_ZN4core3ptr18real_drop_in_place17h9f14959f5214e5b9E
	jmp	.LBB56_6
.LBB56_4:
	movq	40(%rsp), %rax
	movq	32(%rsp), %rcx
	movq	%rax, (%rcx)
	movq	48(%rsp), %rax
	movq	%rax, 8(%rcx)
	movq	56(%rsp), %rax
	movq	%rax, 16(%rcx)
	movq	16(%rsp), %rax
	addq	$88, %rsp
	.cfi_def_cfa_offset 8
	retq
.LBB56_5:
	.cfi_def_cfa_offset 96
	movb	$0, 71(%rsp)
	jmp	.LBB56_1
.LBB56_6:
	testb	$1, 71(%rsp)
	jne	.LBB56_5
	jmp	.LBB56_1
.LBB56_7:
.Ltmp55:
	movl	%edx, %ecx
	movq	%rax, 72(%rsp)
	movl	%ecx, 80(%rsp)
	jmp	.LBB56_6
.LBB56_8:
.Ltmp58:
	movl	%edx, %ecx
	movq	%rax, 72(%rsp)
	movl	%ecx, 80(%rsp)
	jmp	.LBB56_3
.Lfunc_end56:
	.size	_ZN46_$LT$T$u20$as$u20$alloc..vec..SpecFromElem$GT$9from_elem17h3878d94421b83cf3E, .Lfunc_end56-_ZN46_$LT$T$u20$as$u20$alloc..vec..SpecFromElem$GT$9from_elem17h3878d94421b83cf3E
	.cfi_endproc
	.section	.gcc_except_table,"a",@progbits
	.p2align	2
GCC_except_table56:
.Lexception4:
	.byte	255
	.byte	255
	.byte	1
	.uleb128 .Lcst_end4-.Lcst_begin4
.Lcst_begin4:
	.uleb128 .Ltmp53-.Lfunc_begin4
	.uleb128 .Ltmp54-.Ltmp53
	.uleb128 .Ltmp55-.Lfunc_begin4
	.byte	0
	.uleb128 .Ltmp54-.Lfunc_begin4
	.uleb128 .Ltmp56-.Ltmp54
	.byte	0
	.byte	0
	.uleb128 .Ltmp56-.Lfunc_begin4
	.uleb128 .Ltmp57-.Ltmp56
	.uleb128 .Ltmp58-.Lfunc_begin4
	.byte	0
	.uleb128 .Ltmp57-.Lfunc_begin4
	.uleb128 .Lfunc_end56-.Ltmp57
	.byte	0
	.byte	0
.Lcst_end4:
	.p2align	2

	.section	".text._ZN47_$LT$core..result..Result$LT$T$C$$u20$E$GT$$GT$14unwrap_or_else17hbab1ca4ececd1889E","ax",@progbits
	.p2align	4, 0x90
	.type	_ZN47_$LT$core..result..Result$LT$T$C$$u20$E$GT$$GT$14unwrap_or_else17hbab1ca4ececd1889E,@function
_ZN47_$LT$core..result..Result$LT$T$C$$u20$E$GT$$GT$14unwrap_or_else17hbab1ca4ececd1889E:
.Lfunc_begin5:
	.cfi_startproc
	.cfi_personality 155, DW.ref.rust_eh_personality
	.cfi_lsda 27, .Lexception5
	subq	$56, %rsp
	.cfi_def_cfa_offset 64
	movb	%dil, %al
	movb	%al, 31(%rsp)
	movb	$0, 38(%rsp)
	movb	$0, 37(%rsp)
	movb	$0, 39(%rsp)
	movb	$1, 37(%rsp)
	movb	$1, 38(%rsp)
	movb	$1, 39(%rsp)
	movb	31(%rsp), %al
	subb	$2, %al
	setne	%cl
	movzbl	%cl, %edi
	movl	%edi, %edx
	movb	%al, 30(%rsp)
	movq	%rdx, 16(%rsp)
	je	.LBB57_3
	jmp	.LBB57_20
.LBB57_20:
	movq	16(%rsp), %rax
	subq	$1, %rax
	movq	%rax, 8(%rsp)
	je	.LBB57_4
	jmp	.LBB57_2
.LBB57_1:
	movq	40(%rsp), %rdi
	callq	_Unwind_Resume@PLT
	ud2
.LBB57_2:
	ud2
.LBB57_3:
	movb	$0, 38(%rsp)
	jmp	.LBB57_6
.LBB57_4:
	movb	$0, 37(%rsp)
	movb	31(%rsp), %al
	movb	$0, 39(%rsp)
	movb	%al, 36(%rsp)
	movzbl	36(%rsp), %edi
.Ltmp59:
	callq	_ZN49_$LT$alloc..raw_vec..RawVec$LT$T$C$$u20$A$GT$$GT$11allocate_in28_$u7b$$u7b$closure$u7d$$u7d$17hbf0b15a056aa88e8E
.Ltmp60:
	jmp	.LBB57_5
.LBB57_5:
	jmp	.LBB57_6
.LBB57_6:
	testb	$1, 39(%rsp)
	jne	.LBB57_13
.LBB57_7:
	xorl	%eax, %eax
	movl	%eax, %ecx
	cmpb	$2, 31(%rsp)
	movl	$1, %edx
	cmoveq	%rcx, %rdx
	cmpq	$0, %rdx
	je	.LBB57_15
	jmp	.LBB57_17
.LBB57_8:
	testb	$1, 38(%rsp)
	je	.LBB57_1
	movb	$0, 38(%rsp)
	jmp	.LBB57_1
.LBB57_10:
	testb	$1, 37(%rsp)
	je	.LBB57_1
	movb	$0, 37(%rsp)
	jmp	.LBB57_1
.LBB57_12:
	xorl	%eax, %eax
	movl	%eax, %ecx
	cmpb	$2, 31(%rsp)
	movl	$1, %edx
	cmoveq	%rcx, %rdx
	cmpq	$0, %rdx
	je	.LBB57_8
	jmp	.LBB57_10
.LBB57_13:
	movb	$0, 39(%rsp)
	jmp	.LBB57_7
.LBB57_14:
	addq	$56, %rsp
	.cfi_def_cfa_offset 8
	retq
.LBB57_15:
	.cfi_def_cfa_offset 64
	testb	$1, 38(%rsp)
	je	.LBB57_14
	movb	$0, 38(%rsp)
	jmp	.LBB57_14
.LBB57_17:
	testb	$1, 37(%rsp)
	je	.LBB57_14
	movb	$0, 37(%rsp)
	jmp	.LBB57_14
.LBB57_19:
.Ltmp61:
	movl	%edx, %ecx
	movq	%rax, 40(%rsp)
	movl	%ecx, 48(%rsp)
	jmp	.LBB57_12
.Lfunc_end57:
	.size	_ZN47_$LT$core..result..Result$LT$T$C$$u20$E$GT$$GT$14unwrap_or_else17hbab1ca4ececd1889E, .Lfunc_end57-_ZN47_$LT$core..result..Result$LT$T$C$$u20$E$GT$$GT$14unwrap_or_else17hbab1ca4ececd1889E
	.cfi_endproc
	.section	.gcc_except_table,"a",@progbits
	.p2align	2
GCC_except_table57:
.Lexception5:
	.byte	255
	.byte	255
	.byte	1
	.uleb128 .Lcst_end5-.Lcst_begin5
.Lcst_begin5:
	.uleb128 .Lfunc_begin5-.Lfunc_begin5
	.uleb128 .Ltmp59-.Lfunc_begin5
	.byte	0
	.byte	0
	.uleb128 .Ltmp59-.Lfunc_begin5
	.uleb128 .Ltmp60-.Ltmp59
	.uleb128 .Ltmp61-.Lfunc_begin5
	.byte	0
.Lcst_end5:
	.p2align	2

	.section	".text._ZN47_$LT$core..result..Result$LT$T$C$$u20$E$GT$$GT$3map17h45c01df576c844f7E","ax",@progbits
	.p2align	4, 0x90
	.type	_ZN47_$LT$core..result..Result$LT$T$C$$u20$E$GT$$GT$3map17h45c01df576c844f7E,@function
_ZN47_$LT$core..result..Result$LT$T$C$$u20$E$GT$$GT$3map17h45c01df576c844f7E:
.Lfunc_begin6:
	.cfi_startproc
	.cfi_personality 155, DW.ref.rust_eh_personality
	.cfi_lsda 27, .Lexception6
	subq	$184, %rsp
	.cfi_def_cfa_offset 192
	movb	$0, 166(%rsp)
	movb	$0, 165(%rsp)
	movb	$0, 167(%rsp)
	movb	$1, 165(%rsp)
	movb	$1, 166(%rsp)
	movb	$1, 167(%rsp)
	movq	8(%rdi), %rax
	testq	%rax, %rax
	sete	%cl
	movzbl	%cl, %edx
	movl	%edx, %eax
	movq	%rdi, 40(%rsp)
	movq	%rax, 32(%rsp)
	jne	.LBB58_3
	jmp	.LBB58_20
.LBB58_20:
	movq	32(%rsp), %rax
	subq	$1, %rax
	movq	%rax, 24(%rsp)
	je	.LBB58_4
	jmp	.LBB58_2
.LBB58_1:
	movq	168(%rsp), %rdi
	callq	_Unwind_Resume@PLT
	ud2
.LBB58_2:
	ud2
.LBB58_3:
	movb	$0, 166(%rsp)
	movq	40(%rsp), %rax
	movq	16(%rax), %rcx
	movq	%rcx, 80(%rsp)
	movups	(%rax), %xmm0
	movaps	%xmm0, 64(%rsp)
	movb	$0, 167(%rsp)
	movq	80(%rsp), %rcx
	movq	%rcx, 144(%rsp)
	movaps	64(%rsp), %xmm0
	movaps	%xmm0, 128(%rsp)
	movq	144(%rsp), %rcx
	movq	%rcx, 112(%rsp)
	movaps	128(%rsp), %xmm0
	movaps	%xmm0, 96(%rsp)
.Ltmp62:
	leaq	96(%rsp), %rdi
	callq	_ZN4core5alloc6Layout5array28_$u7b$$u7b$closure$u7d$$u7d$17h909fd84fde210160E
.Ltmp63:
	movq	%rdx, 16(%rsp)
	movq	%rax, 8(%rsp)
	jmp	.LBB58_6
.LBB58_4:
	movb	$0, 165(%rsp)
	movq	$0, 56(%rsp)
.LBB58_5:
	testb	$1, 167(%rsp)
	jne	.LBB58_13
	jmp	.LBB58_7
.LBB58_6:
	movq	8(%rsp), %rax
	movq	%rax, 48(%rsp)
	movq	16(%rsp), %rax
	movq	%rax, 56(%rsp)
	jmp	.LBB58_5
.LBB58_7:
	xorl	%eax, %eax
	movl	%eax, %ecx
	movq	40(%rsp), %rdx
	cmpq	$0, 8(%rdx)
	movl	$1, %esi
	cmoveq	%rsi, %rcx
	cmpq	$0, %rcx
	je	.LBB58_15
	jmp	.LBB58_17
.LBB58_8:
	testb	$1, 166(%rsp)
	je	.LBB58_1
	movb	$0, 166(%rsp)
	jmp	.LBB58_1
.LBB58_10:
	testb	$1, 165(%rsp)
	je	.LBB58_1
	movb	$0, 165(%rsp)
	jmp	.LBB58_1
.LBB58_12:
	xorl	%eax, %eax
	movl	%eax, %ecx
	movq	40(%rsp), %rdx
	cmpq	$0, 8(%rdx)
	movl	$1, %esi
	cmoveq	%rsi, %rcx
	cmpq	$0, %rcx
	je	.LBB58_8
	jmp	.LBB58_10
.LBB58_13:
	movb	$0, 167(%rsp)
	jmp	.LBB58_7
.LBB58_14:
	movq	48(%rsp), %rax
	movq	56(%rsp), %rdx
	addq	$184, %rsp
	.cfi_def_cfa_offset 8
	retq
.LBB58_15:
	.cfi_def_cfa_offset 192
	testb	$1, 166(%rsp)
	je	.LBB58_14
	movb	$0, 166(%rsp)
	jmp	.LBB58_14
.LBB58_17:
	testb	$1, 165(%rsp)
	je	.LBB58_14
	movb	$0, 165(%rsp)
	jmp	.LBB58_14
.LBB58_19:
.Ltmp64:
	movl	%edx, %ecx
	movq	%rax, 168(%rsp)
	movl	%ecx, 176(%rsp)
	jmp	.LBB58_12
.Lfunc_end58:
	.size	_ZN47_$LT$core..result..Result$LT$T$C$$u20$E$GT$$GT$3map17h45c01df576c844f7E, .Lfunc_end58-_ZN47_$LT$core..result..Result$LT$T$C$$u20$E$GT$$GT$3map17h45c01df576c844f7E
	.cfi_endproc
	.section	.gcc_except_table,"a",@progbits
	.p2align	2
GCC_except_table58:
.Lexception6:
	.byte	255
	.byte	255
	.byte	1
	.uleb128 .Lcst_end6-.Lcst_begin6
.Lcst_begin6:
	.uleb128 .Lfunc_begin6-.Lfunc_begin6
	.uleb128 .Ltmp62-.Lfunc_begin6
	.byte	0
	.byte	0
	.uleb128 .Ltmp62-.Lfunc_begin6
	.uleb128 .Ltmp63-.Ltmp62
	.uleb128 .Ltmp64-.Lfunc_begin6
	.byte	0
.Lcst_end6:
	.p2align	2

	.section	".text._ZN47_$LT$core..result..Result$LT$T$C$$u20$E$GT$$GT$3map17hca57c21eda0fa6d4E","ax",@progbits
	.p2align	4, 0x90
	.type	_ZN47_$LT$core..result..Result$LT$T$C$$u20$E$GT$$GT$3map17hca57c21eda0fa6d4E,@function
_ZN47_$LT$core..result..Result$LT$T$C$$u20$E$GT$$GT$3map17hca57c21eda0fa6d4E:
.Lfunc_begin7:
	.cfi_startproc
	.cfi_personality 155, DW.ref.rust_eh_personality
	.cfi_lsda 27, .Lexception7
	subq	$184, %rsp
	.cfi_def_cfa_offset 192
	movb	$0, 166(%rsp)
	movb	$0, 165(%rsp)
	movb	$0, 167(%rsp)
	movb	$1, 165(%rsp)
	movb	$1, 166(%rsp)
	movb	$1, 167(%rsp)
	movq	8(%rdi), %rax
	testq	%rax, %rax
	sete	%cl
	movzbl	%cl, %edx
	movl	%edx, %eax
	movq	%rdi, 40(%rsp)
	movq	%rax, 32(%rsp)
	jne	.LBB59_3
	jmp	.LBB59_20
.LBB59_20:
	movq	32(%rsp), %rax
	subq	$1, %rax
	movq	%rax, 24(%rsp)
	je	.LBB59_4
	jmp	.LBB59_2
.LBB59_1:
	movq	168(%rsp), %rdi
	callq	_Unwind_Resume@PLT
	ud2
.LBB59_2:
	ud2
.LBB59_3:
	movb	$0, 166(%rsp)
	movq	40(%rsp), %rax
	movq	16(%rax), %rcx
	movq	%rcx, 80(%rsp)
	movups	(%rax), %xmm0
	movaps	%xmm0, 64(%rsp)
	movb	$0, 167(%rsp)
	movq	80(%rsp), %rcx
	movq	%rcx, 144(%rsp)
	movaps	64(%rsp), %xmm0
	movaps	%xmm0, 128(%rsp)
	movq	144(%rsp), %rcx
	movq	%rcx, 112(%rsp)
	movaps	128(%rsp), %xmm0
	movaps	%xmm0, 96(%rsp)
.Ltmp65:
	leaq	96(%rsp), %rdi
	callq	_ZN4core5alloc6Layout5array28_$u7b$$u7b$closure$u7d$$u7d$17h566d482f3735519dE
.Ltmp66:
	movq	%rdx, 16(%rsp)
	movq	%rax, 8(%rsp)
	jmp	.LBB59_6
.LBB59_4:
	movb	$0, 165(%rsp)
	movq	$0, 56(%rsp)
.LBB59_5:
	testb	$1, 167(%rsp)
	jne	.LBB59_13
	jmp	.LBB59_7
.LBB59_6:
	movq	8(%rsp), %rax
	movq	%rax, 48(%rsp)
	movq	16(%rsp), %rax
	movq	%rax, 56(%rsp)
	jmp	.LBB59_5
.LBB59_7:
	xorl	%eax, %eax
	movl	%eax, %ecx
	movq	40(%rsp), %rdx
	cmpq	$0, 8(%rdx)
	movl	$1, %esi
	cmoveq	%rsi, %rcx
	cmpq	$0, %rcx
	je	.LBB59_15
	jmp	.LBB59_17
.LBB59_8:
	testb	$1, 166(%rsp)
	je	.LBB59_1
	movb	$0, 166(%rsp)
	jmp	.LBB59_1
.LBB59_10:
	testb	$1, 165(%rsp)
	je	.LBB59_1
	movb	$0, 165(%rsp)
	jmp	.LBB59_1
.LBB59_12:
	xorl	%eax, %eax
	movl	%eax, %ecx
	movq	40(%rsp), %rdx
	cmpq	$0, 8(%rdx)
	movl	$1, %esi
	cmoveq	%rsi, %rcx
	cmpq	$0, %rcx
	je	.LBB59_8
	jmp	.LBB59_10
.LBB59_13:
	movb	$0, 167(%rsp)
	jmp	.LBB59_7
.LBB59_14:
	movq	48(%rsp), %rax
	movq	56(%rsp), %rdx
	addq	$184, %rsp
	.cfi_def_cfa_offset 8
	retq
.LBB59_15:
	.cfi_def_cfa_offset 192
	testb	$1, 166(%rsp)
	je	.LBB59_14
	movb	$0, 166(%rsp)
	jmp	.LBB59_14
.LBB59_17:
	testb	$1, 165(%rsp)
	je	.LBB59_14
	movb	$0, 165(%rsp)
	jmp	.LBB59_14
.LBB59_19:
.Ltmp67:
	movl	%edx, %ecx
	movq	%rax, 168(%rsp)
	movl	%ecx, 176(%rsp)
	jmp	.LBB59_12
.Lfunc_end59:
	.size	_ZN47_$LT$core..result..Result$LT$T$C$$u20$E$GT$$GT$3map17hca57c21eda0fa6d4E, .Lfunc_end59-_ZN47_$LT$core..result..Result$LT$T$C$$u20$E$GT$$GT$3map17hca57c21eda0fa6d4E
	.cfi_endproc
	.section	.gcc_except_table,"a",@progbits
	.p2align	2
GCC_except_table59:
.Lexception7:
	.byte	255
	.byte	255
	.byte	1
	.uleb128 .Lcst_end7-.Lcst_begin7
.Lcst_begin7:
	.uleb128 .Lfunc_begin7-.Lfunc_begin7
	.uleb128 .Ltmp65-.Lfunc_begin7
	.byte	0
	.byte	0
	.uleb128 .Ltmp65-.Lfunc_begin7
	.uleb128 .Ltmp66-.Ltmp65
	.uleb128 .Ltmp67-.Lfunc_begin7
	.byte	0
.Lcst_end7:
	.p2align	2

	.section	".text._ZN47_$LT$core..result..Result$LT$T$C$$u20$E$GT$$GT$6unwrap17h57f747ddb8d4b84dE","ax",@progbits
	.p2align	4, 0x90
	.type	_ZN47_$LT$core..result..Result$LT$T$C$$u20$E$GT$$GT$6unwrap17h57f747ddb8d4b84dE,@function
_ZN47_$LT$core..result..Result$LT$T$C$$u20$E$GT$$GT$6unwrap17h57f747ddb8d4b84dE:
.Lfunc_begin8:
	.cfi_startproc
	.cfi_personality 155, DW.ref.rust_eh_personality
	.cfi_lsda 27, .Lexception8
	subq	$72, %rsp
	.cfi_def_cfa_offset 80
	movq	%rdi, 40(%rsp)
	movq	%rsi, 48(%rsp)
	movq	48(%rsp), %rsi
	testq	%rsi, %rsi
	sete	%al
	movzbl	%al, %ecx
	movl	%ecx, %esi
	movq	%rsi, 32(%rsp)
	jne	.LBB60_3
	jmp	.LBB60_11
.LBB60_11:
	movq	32(%rsp), %rax
	subq	$1, %rax
	movq	%rax, 24(%rsp)
	je	.LBB60_4
	jmp	.LBB60_2
.LBB60_1:
	movq	56(%rsp), %rdi
	callq	_Unwind_Resume@PLT
	ud2
.LBB60_2:
	ud2
.LBB60_3:
	xorl	%eax, %eax
	movl	%eax, %ecx
	movq	40(%rsp), %rax
	movq	48(%rsp), %rdx
	cmpq	$0, 48(%rsp)
	movl	$1, %esi
	cmoveq	%rsi, %rcx
	cmpq	$0, %rcx
	movq	%rax, 16(%rsp)
	movq	%rdx, 8(%rsp)
	je	.LBB60_7
	jmp	.LBB60_8
.LBB60_4:
.Ltmp68:
	leaq	.L__unnamed_3(%rip), %rdi
	movl	$43, %esi
	callq	_ZN4core6result13unwrap_failed17h2a4b6d47efa6f99eE
.Ltmp69:
	jmp	.LBB60_9
.LBB60_5:
	jmp	.LBB60_1
.LBB60_6:
	xorl	%eax, %eax
	movl	%eax, %ecx
	cmpq	$0, 48(%rsp)
	movl	$1, %edx
	cmoveq	%rdx, %rcx
	cmpq	$0, %rcx
	je	.LBB60_5
	jmp	.LBB60_1
.LBB60_7:
	movq	16(%rsp), %rax
	movq	8(%rsp), %rdx
	addq	$72, %rsp
	.cfi_def_cfa_offset 8
	retq
.LBB60_8:
	.cfi_def_cfa_offset 80
	jmp	.LBB60_7
.LBB60_9:
	ud2
.LBB60_10:
.Ltmp70:
	movl	%edx, %ecx
	movq	%rax, 56(%rsp)
	movl	%ecx, 64(%rsp)
	jmp	.LBB60_6
.Lfunc_end60:
	.size	_ZN47_$LT$core..result..Result$LT$T$C$$u20$E$GT$$GT$6unwrap17h57f747ddb8d4b84dE, .Lfunc_end60-_ZN47_$LT$core..result..Result$LT$T$C$$u20$E$GT$$GT$6unwrap17h57f747ddb8d4b84dE
	.cfi_endproc
	.section	.gcc_except_table,"a",@progbits
	.p2align	2
GCC_except_table60:
.Lexception8:
	.byte	255
	.byte	255
	.byte	1
	.uleb128 .Lcst_end8-.Lcst_begin8
.Lcst_begin8:
	.uleb128 .Lfunc_begin8-.Lfunc_begin8
	.uleb128 .Ltmp68-.Lfunc_begin8
	.byte	0
	.byte	0
	.uleb128 .Ltmp68-.Lfunc_begin8
	.uleb128 .Ltmp69-.Ltmp68
	.uleb128 .Ltmp70-.Lfunc_begin8
	.byte	0
.Lcst_end8:
	.p2align	2

	.section	".text._ZN47_$LT$core..result..Result$LT$T$C$$u20$E$GT$$GT$7map_err17h061acde6ca108491E","ax",@progbits
	.p2align	4, 0x90
	.type	_ZN47_$LT$core..result..Result$LT$T$C$$u20$E$GT$$GT$7map_err17h061acde6ca108491E,@function
_ZN47_$LT$core..result..Result$LT$T$C$$u20$E$GT$$GT$7map_err17h061acde6ca108491E:
.Lfunc_begin9:
	.cfi_startproc
	.cfi_personality 155, DW.ref.rust_eh_personality
	.cfi_lsda 27, .Lexception9
	subq	$88, %rsp
	.cfi_def_cfa_offset 96
	movq	%rdi, %rax
	movq	%rsi, 48(%rsp)
	movq	%rdx, 56(%rsp)
	movb	$0, 70(%rsp)
	movb	$0, 69(%rsp)
	movb	$0, 71(%rsp)
	movb	$1, 69(%rsp)
	movb	$1, 70(%rsp)
	movb	$1, 71(%rsp)
	movq	56(%rsp), %rdx
	testq	%rdx, %rdx
	sete	%cl
	movzbl	%cl, %r8d
	movl	%r8d, %edx
	movq	%rax, 40(%rsp)
	movq	%rdi, 32(%rsp)
	movq	%rdx, 24(%rsp)
	jne	.LBB61_3
	jmp	.LBB61_20
.LBB61_20:
	movq	24(%rsp), %rax
	subq	$1, %rax
	movq	%rax, 16(%rsp)
	je	.LBB61_4
	jmp	.LBB61_2
.LBB61_1:
	movq	72(%rsp), %rdi
	callq	_Unwind_Resume@PLT
	ud2
.LBB61_2:
	ud2
.LBB61_3:
	movb	$0, 70(%rsp)
	movq	48(%rsp), %rax
	movq	56(%rsp), %rcx
	movq	32(%rsp), %rdx
	movq	%rax, 8(%rdx)
	movq	%rcx, 16(%rdx)
	movb	$0, (%rdx)
	jmp	.LBB61_5
.LBB61_4:
	movb	$0, 69(%rsp)
	movb	$0, 71(%rsp)
.Ltmp71:
	callq	_ZN49_$LT$alloc..raw_vec..RawVec$LT$T$C$$u20$A$GT$$GT$16reserve_internal28_$u7b$$u7b$closure$u7d$$u7d$17he1daca1f8b8b0f33E
.Ltmp72:
	movb	%al, 15(%rsp)
	jmp	.LBB61_6
.LBB61_5:
	testb	$1, 71(%rsp)
	jne	.LBB61_13
	jmp	.LBB61_7
.LBB61_6:
	movb	15(%rsp), %al
	andb	$1, %al
	movq	32(%rsp), %rcx
	movb	%al, 1(%rcx)
	movb	$1, (%rcx)
	jmp	.LBB61_5
.LBB61_7:
	xorl	%eax, %eax
	movl	%eax, %ecx
	cmpq	$0, 56(%rsp)
	movl	$1, %edx
	cmoveq	%rdx, %rcx
	cmpq	$0, %rcx
	je	.LBB61_15
	jmp	.LBB61_17
.LBB61_8:
	testb	$1, 70(%rsp)
	je	.LBB61_1
	movb	$0, 70(%rsp)
	jmp	.LBB61_1
.LBB61_10:
	testb	$1, 69(%rsp)
	je	.LBB61_1
	movb	$0, 69(%rsp)
	jmp	.LBB61_1
.LBB61_12:
	xorl	%eax, %eax
	movl	%eax, %ecx
	cmpq	$0, 56(%rsp)
	movl	$1, %edx
	cmoveq	%rdx, %rcx
	cmpq	$0, %rcx
	je	.LBB61_8
	jmp	.LBB61_10
.LBB61_13:
	movb	$0, 71(%rsp)
	jmp	.LBB61_7
.LBB61_14:
	movq	40(%rsp), %rax
	addq	$88, %rsp
	.cfi_def_cfa_offset 8
	retq
.LBB61_15:
	.cfi_def_cfa_offset 96
	testb	$1, 70(%rsp)
	je	.LBB61_14
	movb	$0, 70(%rsp)
	jmp	.LBB61_14
.LBB61_17:
	testb	$1, 69(%rsp)
	je	.LBB61_14
	movb	$0, 69(%rsp)
	jmp	.LBB61_14
.LBB61_19:
.Ltmp73:
	movl	%edx, %ecx
	movq	%rax, 72(%rsp)
	movl	%ecx, 80(%rsp)
	jmp	.LBB61_12
.Lfunc_end61:
	.size	_ZN47_$LT$core..result..Result$LT$T$C$$u20$E$GT$$GT$7map_err17h061acde6ca108491E, .Lfunc_end61-_ZN47_$LT$core..result..Result$LT$T$C$$u20$E$GT$$GT$7map_err17h061acde6ca108491E
	.cfi_endproc
	.section	.gcc_except_table,"a",@progbits
	.p2align	2
GCC_except_table61:
.Lexception9:
	.byte	255
	.byte	255
	.byte	1
	.uleb128 .Lcst_end9-.Lcst_begin9
.Lcst_begin9:
	.uleb128 .Lfunc_begin9-.Lfunc_begin9
	.uleb128 .Ltmp71-.Lfunc_begin9
	.byte	0
	.byte	0
	.uleb128 .Ltmp71-.Lfunc_begin9
	.uleb128 .Ltmp72-.Ltmp71
	.uleb128 .Ltmp73-.Lfunc_begin9
	.byte	0
.Lcst_end9:
	.p2align	2

	.section	".text._ZN47_$LT$core..result..Result$LT$T$C$$u20$E$GT$$GT$7map_err17h9a0b5966f7dc821cE","ax",@progbits
	.p2align	4, 0x90
	.type	_ZN47_$LT$core..result..Result$LT$T$C$$u20$E$GT$$GT$7map_err17h9a0b5966f7dc821cE,@function
_ZN47_$LT$core..result..Result$LT$T$C$$u20$E$GT$$GT$7map_err17h9a0b5966f7dc821cE:
.Lfunc_begin10:
	.cfi_startproc
	.cfi_personality 155, DW.ref.rust_eh_personality
	.cfi_lsda 27, .Lexception10
	subq	$88, %rsp
	.cfi_def_cfa_offset 96
	movq	%rdi, %rax
	movq	%rsi, 48(%rsp)
	movq	%rdx, 56(%rsp)
	movb	$0, 70(%rsp)
	movb	$0, 69(%rsp)
	movb	$0, 71(%rsp)
	movb	$1, 69(%rsp)
	movb	$1, 70(%rsp)
	movb	$1, 71(%rsp)
	movq	56(%rsp), %rdx
	testq	%rdx, %rdx
	sete	%cl
	movzbl	%cl, %r8d
	movl	%r8d, %edx
	movq	%rax, 40(%rsp)
	movq	%rdi, 32(%rsp)
	movq	%rdx, 24(%rsp)
	jne	.LBB62_3
	jmp	.LBB62_20
.LBB62_20:
	movq	24(%rsp), %rax
	subq	$1, %rax
	movq	%rax, 16(%rsp)
	je	.LBB62_4
	jmp	.LBB62_2
.LBB62_1:
	movq	72(%rsp), %rdi
	callq	_Unwind_Resume@PLT
	ud2
.LBB62_2:
	ud2
.LBB62_3:
	movb	$0, 70(%rsp)
	movq	48(%rsp), %rax
	movq	56(%rsp), %rcx
	movq	32(%rsp), %rdx
	movq	%rax, 8(%rdx)
	movq	%rcx, 16(%rdx)
	movb	$0, (%rdx)
	jmp	.LBB62_5
.LBB62_4:
	movb	$0, 69(%rsp)
	movb	$0, 71(%rsp)
.Ltmp74:
	callq	_ZN49_$LT$alloc..raw_vec..RawVec$LT$T$C$$u20$A$GT$$GT$16reserve_internal28_$u7b$$u7b$closure$u7d$$u7d$17h58bfc7148e1b3e04E
.Ltmp75:
	movb	%al, 15(%rsp)
	jmp	.LBB62_6
.LBB62_5:
	testb	$1, 71(%rsp)
	jne	.LBB62_13
	jmp	.LBB62_7
.LBB62_6:
	movb	15(%rsp), %al
	andb	$1, %al
	movq	32(%rsp), %rcx
	movb	%al, 1(%rcx)
	movb	$1, (%rcx)
	jmp	.LBB62_5
.LBB62_7:
	xorl	%eax, %eax
	movl	%eax, %ecx
	cmpq	$0, 56(%rsp)
	movl	$1, %edx
	cmoveq	%rdx, %rcx
	cmpq	$0, %rcx
	je	.LBB62_15
	jmp	.LBB62_17
.LBB62_8:
	testb	$1, 70(%rsp)
	je	.LBB62_1
	movb	$0, 70(%rsp)
	jmp	.LBB62_1
.LBB62_10:
	testb	$1, 69(%rsp)
	je	.LBB62_1
	movb	$0, 69(%rsp)
	jmp	.LBB62_1
.LBB62_12:
	xorl	%eax, %eax
	movl	%eax, %ecx
	cmpq	$0, 56(%rsp)
	movl	$1, %edx
	cmoveq	%rdx, %rcx
	cmpq	$0, %rcx
	je	.LBB62_8
	jmp	.LBB62_10
.LBB62_13:
	movb	$0, 71(%rsp)
	jmp	.LBB62_7
.LBB62_14:
	movq	40(%rsp), %rax
	addq	$88, %rsp
	.cfi_def_cfa_offset 8
	retq
.LBB62_15:
	.cfi_def_cfa_offset 96
	testb	$1, 70(%rsp)
	je	.LBB62_14
	movb	$0, 70(%rsp)
	jmp	.LBB62_14
.LBB62_17:
	testb	$1, 69(%rsp)
	je	.LBB62_14
	movb	$0, 69(%rsp)
	jmp	.LBB62_14
.LBB62_19:
.Ltmp76:
	movl	%edx, %ecx
	movq	%rax, 72(%rsp)
	movl	%ecx, 80(%rsp)
	jmp	.LBB62_12
.Lfunc_end62:
	.size	_ZN47_$LT$core..result..Result$LT$T$C$$u20$E$GT$$GT$7map_err17h9a0b5966f7dc821cE, .Lfunc_end62-_ZN47_$LT$core..result..Result$LT$T$C$$u20$E$GT$$GT$7map_err17h9a0b5966f7dc821cE
	.cfi_endproc
	.section	.gcc_except_table,"a",@progbits
	.p2align	2
GCC_except_table62:
.Lexception10:
	.byte	255
	.byte	255
	.byte	1
	.uleb128 .Lcst_end10-.Lcst_begin10
.Lcst_begin10:
	.uleb128 .Lfunc_begin10-.Lfunc_begin10
	.uleb128 .Ltmp74-.Lfunc_begin10
	.byte	0
	.byte	0
	.uleb128 .Ltmp74-.Lfunc_begin10
	.uleb128 .Ltmp75-.Ltmp74
	.uleb128 .Ltmp76-.Lfunc_begin10
	.byte	0
.Lcst_end10:
	.p2align	2

	.section	".text._ZN48_$LT$$u5b$T$u5d$$u20$as$u20$core..fmt..Debug$GT$3fmt17h6f6ff003d7de78c2E","ax",@progbits
	.p2align	4, 0x90
	.type	_ZN48_$LT$$u5b$T$u5d$$u20$as$u20$core..fmt..Debug$GT$3fmt17h6f6ff003d7de78c2E,@function
_ZN48_$LT$$u5b$T$u5d$$u20$as$u20$core..fmt..Debug$GT$3fmt17h6f6ff003d7de78c2E:
	.cfi_startproc
	subq	$72, %rsp
	.cfi_def_cfa_offset 80
	leaq	56(%rsp), %rax
	movq	%rdi, 48(%rsp)
	movq	%rax, %rdi
	movq	%rsi, 40(%rsp)
	movq	%rdx, %rsi
	callq	*_ZN4core3fmt9Formatter10debug_list17hfbe594a5c4c29914E@GOTPCREL(%rip)
	movq	48(%rsp), %rdi
	movq	40(%rsp), %rsi
	callq	_ZN4core5slice29_$LT$impl$u20$$u5b$T$u5d$$GT$4iter17hebc81bceef96061dE
	movq	%rax, 32(%rsp)
	movq	%rdx, 24(%rsp)
	leaq	56(%rsp), %rdi
	movq	32(%rsp), %rsi
	movq	24(%rsp), %rdx
	callq	_ZN4core3fmt8builders9DebugList7entries17hef8754ae21a8a8c2E
	movq	%rax, 16(%rsp)
	movq	16(%rsp), %rdi
	callq	*_ZN4core3fmt8builders9DebugList6finish17h1a98786aad11d7dcE@GOTPCREL(%rip)
	movb	%al, 15(%rsp)
	movb	15(%rsp), %al
	andb	$1, %al
	movzbl	%al, %eax
	addq	$72, %rsp
	.cfi_def_cfa_offset 8
	retq
.Lfunc_end63:
	.size	_ZN48_$LT$$u5b$T$u5d$$u20$as$u20$core..fmt..Debug$GT$3fmt17h6f6ff003d7de78c2E, .Lfunc_end63-_ZN48_$LT$$u5b$T$u5d$$u20$as$u20$core..fmt..Debug$GT$3fmt17h6f6ff003d7de78c2E
	.cfi_endproc

	.section	".text._ZN49_$LT$alloc..raw_vec..RawVec$LT$T$C$$u20$A$GT$$GT$11allocate_in17h4039496fce6b4447E","ax",@progbits
	.p2align	4, 0x90
	.type	_ZN49_$LT$alloc..raw_vec..RawVec$LT$T$C$$u20$A$GT$$GT$11allocate_in17h4039496fce6b4447E,@function
_ZN49_$LT$alloc..raw_vec..RawVec$LT$T$C$$u20$A$GT$$GT$11allocate_in17h4039496fce6b4447E:
.Lfunc_begin11:
	.cfi_startproc
	.cfi_personality 155, DW.ref.rust_eh_personality
	.cfi_lsda 27, .Lexception11
	subq	$232, %rsp
	.cfi_def_cfa_offset 240
	movb	%sil, %al
.Ltmp77:
	movb	%al, 159(%rsp)
	movq	%rdi, 144(%rsp)
	callq	_ZN4core3mem7size_of17h03b5324af02046fdE
.Ltmp78:
	movq	%rax, 136(%rsp)
	jmp	.LBB64_2
.LBB64_1:
	movq	216(%rsp), %rdi
	callq	_Unwind_Resume@PLT
	ud2
.LBB64_2:
.Ltmp79:
	movq	144(%rsp), %rdi
	movq	136(%rsp), %rsi
	callq	_ZN4core3num23_$LT$impl$u20$usize$GT$11checked_mul17h1cd8f220f78e9c78E
.Ltmp80:
	movq	%rdx, 128(%rsp)
	movq	%rax, 120(%rsp)
	jmp	.LBB64_4
.LBB64_3:
	jmp	.LBB64_1
.LBB64_4:
.Ltmp81:
	movq	120(%rsp), %rdi
	movq	128(%rsp), %rsi
	callq	_ZN38_$LT$core..option..Option$LT$T$GT$$GT$14unwrap_or_else17h0da27905250a7077E
.Ltmp82:
	movq	%rax, 112(%rsp)
	jmp	.LBB64_5
.LBB64_5:
.Ltmp83:
	movq	112(%rsp), %rdi
	callq	_ZN5alloc7raw_vec11alloc_guard17hbc94e9da832c5439E
.Ltmp84:
	movb	%al, 111(%rsp)
	jmp	.LBB64_6
.LBB64_6:
.Ltmp85:
	movb	111(%rsp), %al
	movzbl	%al, %edi
	callq	_ZN47_$LT$core..result..Result$LT$T$C$$u20$E$GT$$GT$14unwrap_or_else17hbab1ca4ececd1889E
.Ltmp86:
	jmp	.LBB64_7
.LBB64_7:
	movq	112(%rsp), %rax
	cmpq	$0, %rax
	jne	.LBB64_9
.Ltmp101:
	callq	_ZN36_$LT$core..ptr..NonNull$LT$T$GT$$GT$8dangling17hb392d6046d914db8E
.Ltmp102:
	movq	%rax, 96(%rsp)
	jmp	.LBB64_24
.LBB64_9:
.Ltmp87:
	callq	_ZN4core3mem8align_of17h6cbf56e216ba83fbE
.Ltmp88:
	movq	%rax, 88(%rsp)
	jmp	.LBB64_10
.LBB64_10:
.Ltmp89:
	movq	112(%rsp), %rdi
	movq	88(%rsp), %rsi
	callq	_ZN4core5alloc6Layout15from_size_align17hbd556314a0dd1522E
.Ltmp90:
	movq	%rdx, 80(%rsp)
	movq	%rax, 72(%rsp)
	jmp	.LBB64_11
.LBB64_11:
.Ltmp91:
	movq	72(%rsp), %rdi
	movq	80(%rsp), %rsi
	callq	_ZN47_$LT$core..result..Result$LT$T$C$$u20$E$GT$$GT$6unwrap17h57f747ddb8d4b84dE
.Ltmp92:
	movq	%rdx, 64(%rsp)
	movq	%rax, 56(%rsp)
	jmp	.LBB64_12
.LBB64_12:
	movb	159(%rsp), %al
	testb	$1, %al
	jne	.LBB64_13
	jmp	.LBB64_14
.LBB64_13:
.Ltmp95:
	leaq	160(%rsp), %rdi
	movq	56(%rsp), %rsi
	movq	64(%rsp), %rdx
	callq	_ZN59_$LT$alloc..alloc..Global$u20$as$u20$core..alloc..Alloc$GT$12alloc_zeroed17h5d9ccba75440635bE
.Ltmp96:
	movq	%rax, 48(%rsp)
	jmp	.LBB64_15
.LBB64_14:
.Ltmp93:
	leaq	160(%rsp), %rdi
	movq	56(%rsp), %rsi
	movq	64(%rsp), %rdx
	callq	_ZN59_$LT$alloc..alloc..Global$u20$as$u20$core..alloc..Alloc$GT$5alloc17h18e22881dfbb3db1E
.Ltmp94:
	movq	%rax, 40(%rsp)
	jmp	.LBB64_16
.LBB64_15:
	movq	48(%rsp), %rax
	movq	%rax, 208(%rsp)
	jmp	.LBB64_17
.LBB64_16:
	movq	40(%rsp), %rax
	movq	%rax, 208(%rsp)
.LBB64_17:
	movq	208(%rsp), %rax
	testq	%rax, %rax
	sete	%cl
	movzbl	%cl, %edx
	movl	%edx, %eax
	movq	%rax, 32(%rsp)
	jne	.LBB64_20
	jmp	.LBB64_27
.LBB64_27:
	movq	32(%rsp), %rax
	subq	$1, %rax
	movq	%rax, 24(%rsp)
	jne	.LBB64_19
	jmp	.LBB64_18
.LBB64_18:
.Ltmp97:
	movq	_ZN5alloc5alloc18handle_alloc_error17ha47010db164a19ccE@GOTPCREL(%rip), %rax
	movq	56(%rsp), %rdi
	movq	64(%rsp), %rsi
	callq	*%rax
.Ltmp98:
	jmp	.LBB64_26
.LBB64_19:
	ud2
.LBB64_20:
	movq	208(%rsp), %rdi
.Ltmp99:
	callq	_ZN36_$LT$core..ptr..NonNull$LT$T$GT$$GT$4cast17h228b148c78a28fabE
.Ltmp100:
	movq	%rax, 16(%rsp)
	jmp	.LBB64_21
.LBB64_21:
	movq	16(%rsp), %rax
	movq	%rax, 200(%rsp)
.LBB64_22:
	movq	200(%rsp), %rdi
.Ltmp103:
	callq	_ZN50_$LT$T$u20$as$u20$core..convert..Into$LT$U$GT$$GT$4into17h315c8f0c101f62d5E
.Ltmp104:
	movq	%rax, 8(%rsp)
	jmp	.LBB64_23
.LBB64_23:
	movq	8(%rsp), %rax
	movq	%rax, 168(%rsp)
	movq	144(%rsp), %rcx
	movq	%rcx, 176(%rsp)
	movq	168(%rsp), %rax
	movq	176(%rsp), %rdx
	addq	$232, %rsp
	.cfi_def_cfa_offset 8
	retq
.LBB64_24:
	.cfi_def_cfa_offset 240
	movq	96(%rsp), %rax
	movq	%rax, 200(%rsp)
	jmp	.LBB64_22
.LBB64_25:
.Ltmp105:
	movl	%edx, %ecx
	movq	%rax, 216(%rsp)
	movl	%ecx, 224(%rsp)
	jmp	.LBB64_3
.LBB64_26:
	ud2
.Lfunc_end64:
	.size	_ZN49_$LT$alloc..raw_vec..RawVec$LT$T$C$$u20$A$GT$$GT$11allocate_in17h4039496fce6b4447E, .Lfunc_end64-_ZN49_$LT$alloc..raw_vec..RawVec$LT$T$C$$u20$A$GT$$GT$11allocate_in17h4039496fce6b4447E
	.cfi_endproc
	.section	.gcc_except_table,"a",@progbits
	.p2align	2
GCC_except_table64:
.Lexception11:
	.byte	255
	.byte	255
	.byte	1
	.uleb128 .Lcst_end11-.Lcst_begin11
.Lcst_begin11:
	.uleb128 .Ltmp77-.Lfunc_begin11
	.uleb128 .Ltmp78-.Ltmp77
	.uleb128 .Ltmp105-.Lfunc_begin11
	.byte	0
	.uleb128 .Ltmp78-.Lfunc_begin11
	.uleb128 .Ltmp79-.Ltmp78
	.byte	0
	.byte	0
	.uleb128 .Ltmp79-.Lfunc_begin11
	.uleb128 .Ltmp104-.Ltmp79
	.uleb128 .Ltmp105-.Lfunc_begin11
	.byte	0
.Lcst_end11:
	.p2align	2

	.section	".text._ZN49_$LT$alloc..raw_vec..RawVec$LT$T$C$$u20$A$GT$$GT$11allocate_in28_$u7b$$u7b$closure$u7d$$u7d$17h93267870cad68017E","ax",@progbits
	.p2align	4, 0x90
	.type	_ZN49_$LT$alloc..raw_vec..RawVec$LT$T$C$$u20$A$GT$$GT$11allocate_in28_$u7b$$u7b$closure$u7d$$u7d$17h93267870cad68017E,@function
_ZN49_$LT$alloc..raw_vec..RawVec$LT$T$C$$u20$A$GT$$GT$11allocate_in28_$u7b$$u7b$closure$u7d$$u7d$17h93267870cad68017E:
	.cfi_startproc
	pushq	%rax
	.cfi_def_cfa_offset 16
	movq	_ZN5alloc7raw_vec17capacity_overflow17he82aaa6e8f2774efE@GOTPCREL(%rip), %rax
	callq	*%rax
	ud2
.Lfunc_end65:
	.size	_ZN49_$LT$alloc..raw_vec..RawVec$LT$T$C$$u20$A$GT$$GT$11allocate_in28_$u7b$$u7b$closure$u7d$$u7d$17h93267870cad68017E, .Lfunc_end65-_ZN49_$LT$alloc..raw_vec..RawVec$LT$T$C$$u20$A$GT$$GT$11allocate_in28_$u7b$$u7b$closure$u7d$$u7d$17h93267870cad68017E
	.cfi_endproc

	.section	".text._ZN49_$LT$alloc..raw_vec..RawVec$LT$T$C$$u20$A$GT$$GT$11allocate_in28_$u7b$$u7b$closure$u7d$$u7d$17hbf0b15a056aa88e8E","ax",@progbits
	.p2align	4, 0x90
	.type	_ZN49_$LT$alloc..raw_vec..RawVec$LT$T$C$$u20$A$GT$$GT$11allocate_in28_$u7b$$u7b$closure$u7d$$u7d$17hbf0b15a056aa88e8E,@function
_ZN49_$LT$alloc..raw_vec..RawVec$LT$T$C$$u20$A$GT$$GT$11allocate_in28_$u7b$$u7b$closure$u7d$$u7d$17hbf0b15a056aa88e8E:
	.cfi_startproc
	pushq	%rax
	.cfi_def_cfa_offset 16
	movq	_ZN5alloc7raw_vec17capacity_overflow17he82aaa6e8f2774efE@GOTPCREL(%rip), %rax
	callq	*%rax
	ud2
.Lfunc_end66:
	.size	_ZN49_$LT$alloc..raw_vec..RawVec$LT$T$C$$u20$A$GT$$GT$11allocate_in28_$u7b$$u7b$closure$u7d$$u7d$17hbf0b15a056aa88e8E, .Lfunc_end66-_ZN49_$LT$alloc..raw_vec..RawVec$LT$T$C$$u20$A$GT$$GT$11allocate_in28_$u7b$$u7b$closure$u7d$$u7d$17hbf0b15a056aa88e8E
	.cfi_endproc

	.section	".text._ZN49_$LT$alloc..raw_vec..RawVec$LT$T$C$$u20$A$GT$$GT$14current_layout17h554ee3c6235bff2dE","ax",@progbits
	.p2align	4, 0x90
	.type	_ZN49_$LT$alloc..raw_vec..RawVec$LT$T$C$$u20$A$GT$$GT$14current_layout17h554ee3c6235bff2dE,@function
_ZN49_$LT$alloc..raw_vec..RawVec$LT$T$C$$u20$A$GT$$GT$14current_layout17h554ee3c6235bff2dE:
	.cfi_startproc
	subq	$56, %rsp
	.cfi_def_cfa_offset 64
	cmpq	$0, 8(%rdi)
	movq	%rdi, 32(%rsp)
	jne	.LBB67_2
	movq	$0, 48(%rsp)
	jmp	.LBB67_6
.LBB67_2:
	callq	_ZN4core3mem8align_of17h5beb0207f74c96b9E
	movq	%rax, 24(%rsp)
	callq	_ZN4core3mem7size_of17h436ecd71989f1da2E
	movq	%rax, 16(%rsp)
	movq	16(%rsp), %rax
	movq	32(%rsp), %rcx
	imulq	8(%rcx), %rax
	movq	%rax, %rdi
	movq	24(%rsp), %rsi
	callq	_ZN4core5alloc6Layout25from_size_align_unchecked17h508f9a941507fc18E
	movq	%rax, 8(%rsp)
	movq	%rdx, (%rsp)
	movq	8(%rsp), %rax
	movq	%rax, 40(%rsp)
	movq	(%rsp), %rcx
	movq	%rcx, 48(%rsp)
.LBB67_6:
	movq	40(%rsp), %rax
	movq	48(%rsp), %rdx
	addq	$56, %rsp
	.cfi_def_cfa_offset 8
	retq
.Lfunc_end67:
	.size	_ZN49_$LT$alloc..raw_vec..RawVec$LT$T$C$$u20$A$GT$$GT$14current_layout17h554ee3c6235bff2dE, .Lfunc_end67-_ZN49_$LT$alloc..raw_vec..RawVec$LT$T$C$$u20$A$GT$$GT$14current_layout17h554ee3c6235bff2dE
	.cfi_endproc

	.section	".text._ZN49_$LT$alloc..raw_vec..RawVec$LT$T$C$$u20$A$GT$$GT$14current_layout17h906a98398db7da71E","ax",@progbits
	.p2align	4, 0x90
	.type	_ZN49_$LT$alloc..raw_vec..RawVec$LT$T$C$$u20$A$GT$$GT$14current_layout17h906a98398db7da71E,@function
_ZN49_$LT$alloc..raw_vec..RawVec$LT$T$C$$u20$A$GT$$GT$14current_layout17h906a98398db7da71E:
	.cfi_startproc
	subq	$56, %rsp
	.cfi_def_cfa_offset 64
	cmpq	$0, 8(%rdi)
	movq	%rdi, 32(%rsp)
	jne	.LBB68_2
	movq	$0, 48(%rsp)
	jmp	.LBB68_6
.LBB68_2:
	callq	_ZN4core3mem8align_of17h6cbf56e216ba83fbE
	movq	%rax, 24(%rsp)
	callq	_ZN4core3mem7size_of17h03b5324af02046fdE
	movq	%rax, 16(%rsp)
	movq	16(%rsp), %rax
	movq	32(%rsp), %rcx
	imulq	8(%rcx), %rax
	movq	%rax, %rdi
	movq	24(%rsp), %rsi
	callq	_ZN4core5alloc6Layout25from_size_align_unchecked17h508f9a941507fc18E
	movq	%rax, 8(%rsp)
	movq	%rdx, (%rsp)
	movq	8(%rsp), %rax
	movq	%rax, 40(%rsp)
	movq	(%rsp), %rcx
	movq	%rcx, 48(%rsp)
.LBB68_6:
	movq	40(%rsp), %rax
	movq	48(%rsp), %rdx
	addq	$56, %rsp
	.cfi_def_cfa_offset 8
	retq
.Lfunc_end68:
	.size	_ZN49_$LT$alloc..raw_vec..RawVec$LT$T$C$$u20$A$GT$$GT$14current_layout17h906a98398db7da71E, .Lfunc_end68-_ZN49_$LT$alloc..raw_vec..RawVec$LT$T$C$$u20$A$GT$$GT$14current_layout17h906a98398db7da71E
	.cfi_endproc

	.section	".text._ZN49_$LT$alloc..raw_vec..RawVec$LT$T$C$$u20$A$GT$$GT$14dealloc_buffer17h692ebbee8c76873bE","ax",@progbits
	.p2align	4, 0x90
	.type	_ZN49_$LT$alloc..raw_vec..RawVec$LT$T$C$$u20$A$GT$$GT$14dealloc_buffer17h692ebbee8c76873bE,@function
_ZN49_$LT$alloc..raw_vec..RawVec$LT$T$C$$u20$A$GT$$GT$14dealloc_buffer17h692ebbee8c76873bE:
	.cfi_startproc
	subq	$72, %rsp
	.cfi_def_cfa_offset 80
	movq	%rdi, 48(%rsp)
	callq	_ZN4core3mem7size_of17h436ecd71989f1da2E
	movq	%rax, 40(%rsp)
	movq	40(%rsp), %rax
	cmpq	$0, %rax
	je	.LBB69_9
	movq	48(%rsp), %rdi
	callq	_ZN49_$LT$alloc..raw_vec..RawVec$LT$T$C$$u20$A$GT$$GT$14current_layout17h554ee3c6235bff2dE
	movq	%rdx, 64(%rsp)
	movq	%rax, 56(%rsp)
	xorl	%eax, %eax
	movl	%eax, %ecx
	cmpq	$0, 64(%rsp)
	movl	$1, %edx
	cmoveq	%rcx, %rdx
	cmpq	$1, %rdx
	jne	.LBB69_5
	movq	56(%rsp), %rdx
	movq	64(%rsp), %rcx
	movq	48(%rsp), %rax
	movq	48(%rsp), %rsi
	movq	(%rsi), %rdi
	movq	%rdx, 32(%rsp)
	movq	%rcx, 24(%rsp)
	movq	%rax, 16(%rsp)
	callq	_ZN101_$LT$core..ptr..NonNull$LT$T$GT$$u20$as$u20$core..convert..From$LT$core..ptr..Unique$LT$T$GT$$GT$$GT$4from17h73a89a6ef97468e8E
	movq	%rax, 8(%rsp)
	jmp	.LBB69_6
.LBB69_5:
	jmp	.LBB69_9
.LBB69_6:
	movq	8(%rsp), %rdi
	callq	_ZN36_$LT$core..ptr..NonNull$LT$T$GT$$GT$4cast17h30dc75a78800d755E
	movq	%rax, (%rsp)
	movq	16(%rsp), %rdi
	movq	(%rsp), %rsi
	movq	32(%rsp), %rdx
	movq	24(%rsp), %rcx
	callq	_ZN59_$LT$alloc..alloc..Global$u20$as$u20$core..alloc..Alloc$GT$7dealloc17h5a0ff16466d6b1a9E
	jmp	.LBB69_5
.LBB69_9:
	addq	$72, %rsp
	.cfi_def_cfa_offset 8
	retq
.Lfunc_end69:
	.size	_ZN49_$LT$alloc..raw_vec..RawVec$LT$T$C$$u20$A$GT$$GT$14dealloc_buffer17h692ebbee8c76873bE, .Lfunc_end69-_ZN49_$LT$alloc..raw_vec..RawVec$LT$T$C$$u20$A$GT$$GT$14dealloc_buffer17h692ebbee8c76873bE
	.cfi_endproc

	.section	".text._ZN49_$LT$alloc..raw_vec..RawVec$LT$T$C$$u20$A$GT$$GT$14dealloc_buffer17hc2f45990ae566639E","ax",@progbits
	.p2align	4, 0x90
	.type	_ZN49_$LT$alloc..raw_vec..RawVec$LT$T$C$$u20$A$GT$$GT$14dealloc_buffer17hc2f45990ae566639E,@function
_ZN49_$LT$alloc..raw_vec..RawVec$LT$T$C$$u20$A$GT$$GT$14dealloc_buffer17hc2f45990ae566639E:
	.cfi_startproc
	subq	$72, %rsp
	.cfi_def_cfa_offset 80
	movq	%rdi, 48(%rsp)
	callq	_ZN4core3mem7size_of17h03b5324af02046fdE
	movq	%rax, 40(%rsp)
	movq	40(%rsp), %rax
	cmpq	$0, %rax
	je	.LBB70_9
	movq	48(%rsp), %rdi
	callq	_ZN49_$LT$alloc..raw_vec..RawVec$LT$T$C$$u20$A$GT$$GT$14current_layout17h906a98398db7da71E
	movq	%rdx, 64(%rsp)
	movq	%rax, 56(%rsp)
	xorl	%eax, %eax
	movl	%eax, %ecx
	cmpq	$0, 64(%rsp)
	movl	$1, %edx
	cmoveq	%rcx, %rdx
	cmpq	$1, %rdx
	jne	.LBB70_5
	movq	56(%rsp), %rdx
	movq	64(%rsp), %rcx
	movq	48(%rsp), %rax
	movq	48(%rsp), %rsi
	movq	(%rsi), %rdi
	movq	%rdx, 32(%rsp)
	movq	%rcx, 24(%rsp)
	movq	%rax, 16(%rsp)
	callq	_ZN101_$LT$core..ptr..NonNull$LT$T$GT$$u20$as$u20$core..convert..From$LT$core..ptr..Unique$LT$T$GT$$GT$$GT$4from17hc079cc30bd85f186E
	movq	%rax, 8(%rsp)
	jmp	.LBB70_6
.LBB70_5:
	jmp	.LBB70_9
.LBB70_6:
	movq	8(%rsp), %rdi
	callq	_ZN36_$LT$core..ptr..NonNull$LT$T$GT$$GT$4cast17hf723108d0c9fd30cE
	movq	%rax, (%rsp)
	movq	16(%rsp), %rdi
	movq	(%rsp), %rsi
	movq	32(%rsp), %rdx
	movq	24(%rsp), %rcx
	callq	_ZN59_$LT$alloc..alloc..Global$u20$as$u20$core..alloc..Alloc$GT$7dealloc17h5a0ff16466d6b1a9E
	jmp	.LBB70_5
.LBB70_9:
	addq	$72, %rsp
	.cfi_def_cfa_offset 8
	retq
.Lfunc_end70:
	.size	_ZN49_$LT$alloc..raw_vec..RawVec$LT$T$C$$u20$A$GT$$GT$14dealloc_buffer17hc2f45990ae566639E, .Lfunc_end70-_ZN49_$LT$alloc..raw_vec..RawVec$LT$T$C$$u20$A$GT$$GT$14dealloc_buffer17hc2f45990ae566639E
	.cfi_endproc

	.section	".text._ZN49_$LT$alloc..raw_vec..RawVec$LT$T$C$$u20$A$GT$$GT$16reserve_internal17h63973c7ac51bfbefE","ax",@progbits
	.p2align	4, 0x90
	.type	_ZN49_$LT$alloc..raw_vec..RawVec$LT$T$C$$u20$A$GT$$GT$16reserve_internal17h63973c7ac51bfbefE,@function
_ZN49_$LT$alloc..raw_vec..RawVec$LT$T$C$$u20$A$GT$$GT$16reserve_internal17h63973c7ac51bfbefE:
	.cfi_startproc
	subq	$536, %rsp
	.cfi_def_cfa_offset 544
	movb	%r8b, %al
	movb	%cl, %r9b
	andb	$1, %al
	movb	%al, 310(%rsp)
	movb	%r9b, 309(%rsp)
	movq	%rdx, 296(%rsp)
	movq	%rsi, 288(%rsp)
	movq	%rdi, 280(%rsp)
	callq	_ZN4core3mem7size_of17h436ecd71989f1da2E
	cmpq	$0, %rax
	jne	.LBB71_2
	movq	$-1, 528(%rsp)
	jmp	.LBB71_3
.LBB71_2:
	movq	280(%rsp), %rax
	movq	8(%rax), %rcx
	movq	%rcx, 528(%rsp)
.LBB71_3:
	movq	528(%rsp), %rdi
	movq	%rdi, 272(%rsp)
	movq	272(%rsp), %rdi
	movq	288(%rsp), %rsi
	callq	_ZN4core3num23_$LT$impl$u20$usize$GT$12wrapping_sub17hb395a5a57fe119c8E
	movq	%rax, 264(%rsp)
	movq	264(%rsp), %rax
	movq	296(%rsp), %rcx
	cmpq	%rcx, %rax
	jb	.LBB71_7
	movb	$2, 311(%rsp)
	jmp	.LBB71_8
.LBB71_7:
	movzbl	310(%rsp), %eax
	movl	%eax, %ecx
	movb	%cl, %dl
	testb	$1, %dl
	movq	%rcx, 256(%rsp)
	je	.LBB71_9
	jmp	.LBB71_61
.LBB71_61:
	movq	256(%rsp), %rax
	subq	$1, %rax
	movq	%rax, 248(%rsp)
	je	.LBB71_10
	jmp	.LBB71_11
.LBB71_8:
	movb	311(%rsp), %al
	addq	$536, %rsp
	.cfi_def_cfa_offset 8
	retq
.LBB71_9:
	.cfi_def_cfa_offset 544
	movq	288(%rsp), %rdi
	movq	296(%rsp), %rsi
	callq	_ZN4core3num23_$LT$impl$u20$usize$GT$11checked_add17hdbf569c01a5ee22dE
	movq	%rax, 240(%rsp)
	movq	%rdx, 232(%rsp)
	jmp	.LBB71_13
.LBB71_10:
	leaq	384(%rsp), %rdi
	movq	280(%rsp), %rsi
	movq	288(%rsp), %rdx
	movq	296(%rsp), %rcx
	callq	_ZN49_$LT$alloc..raw_vec..RawVec$LT$T$C$$u20$A$GT$$GT$18amortized_new_size17hd39149f2a95cc7fcE
	jmp	.LBB71_21
.LBB71_11:
	ud2
.LBB71_12:
	movq	320(%rsp), %rdi
	callq	_ZN4core5alloc6Layout5array17hbb37feea0729d09dE
	movq	%rax, 224(%rsp)
	movq	%rdx, 216(%rsp)
	jmp	.LBB71_27
.LBB71_13:
	movb	$0, 367(%rsp)
	movb	367(%rsp), %al
	andb	$1, %al
	leaq	344(%rsp), %rdi
	movq	240(%rsp), %rsi
	movq	232(%rsp), %rdx
	movzbl	%al, %ecx
	callq	_ZN38_$LT$core..option..Option$LT$T$GT$$GT$5ok_or17h9c98d7f9a8f501b2E
	leaq	328(%rsp), %rdi
	leaq	344(%rsp), %rsi
	callq	_ZN78_$LT$core..result..Result$LT$T$C$$u20$E$GT$$u20$as$u20$core..ops..try..Try$GT$11into_result17ha4a8c425cccc43b2E
	movzbl	328(%rsp), %eax
	movl	%eax, %ecx
	movb	%cl, %dl
	testb	$1, %dl
	movq	%rcx, 208(%rsp)
	je	.LBB71_16
	jmp	.LBB71_63
.LBB71_63:
	movq	208(%rsp), %rax
	subq	$1, %rax
	movq	%rax, 200(%rsp)
	je	.LBB71_17
	jmp	.LBB71_11
.LBB71_16:
	movq	336(%rsp), %rax
	movq	%rax, 320(%rsp)
	jmp	.LBB71_12
.LBB71_17:
	movb	329(%rsp), %al
	andb	$1, %al
	movzbl	%al, %edi
	callq	_ZN50_$LT$T$u20$as$u20$core..convert..From$LT$T$GT$$GT$4from17h5a19c94bb2dd3397E
	movb	%al, 199(%rsp)
	movb	199(%rsp), %al
	movzbl	%al, %ecx
	andl	$1, %ecx
	movl	%ecx, %edi
	callq	_ZN78_$LT$core..result..Result$LT$T$C$$u20$E$GT$$u20$as$u20$core..ops..try..Try$GT$10from_error17h771398c2a6d6bd19E
	movb	%al, 311(%rsp)
	jmp	.LBB71_20
.LBB71_20:
	jmp	.LBB71_8
.LBB71_21:
	leaq	368(%rsp), %rdi
	leaq	384(%rsp), %rsi
	callq	_ZN78_$LT$core..result..Result$LT$T$C$$u20$E$GT$$u20$as$u20$core..ops..try..Try$GT$11into_result17ha4a8c425cccc43b2E
	movzbl	368(%rsp), %eax
	movl	%eax, %ecx
	movb	%cl, %dl
	testb	$1, %dl
	movq	%rcx, 184(%rsp)
	je	.LBB71_23
	jmp	.LBB71_62
.LBB71_62:
	movq	184(%rsp), %rax
	subq	$1, %rax
	movq	%rax, 176(%rsp)
	je	.LBB71_24
	jmp	.LBB71_11
.LBB71_23:
	movq	376(%rsp), %rax
	movq	%rax, 320(%rsp)
	jmp	.LBB71_12
.LBB71_24:
	movb	369(%rsp), %al
	andb	$1, %al
	movzbl	%al, %edi
	callq	_ZN50_$LT$T$u20$as$u20$core..convert..From$LT$T$GT$$GT$4from17h5a19c94bb2dd3397E
	movb	%al, 175(%rsp)
	movb	175(%rsp), %al
	movzbl	%al, %ecx
	andl	$1, %ecx
	movl	%ecx, %edi
	callq	_ZN78_$LT$core..result..Result$LT$T$C$$u20$E$GT$$u20$as$u20$core..ops..try..Try$GT$10from_error17h771398c2a6d6bd19E
	movb	%al, 311(%rsp)
	jmp	.LBB71_20
.LBB71_27:
	leaq	440(%rsp), %rdi
	movq	224(%rsp), %rsi
	movq	216(%rsp), %rdx
	callq	_ZN47_$LT$core..result..Result$LT$T$C$$u20$E$GT$$GT$7map_err17h9a0b5966f7dc821cE
	leaq	416(%rsp), %rdi
	leaq	440(%rsp), %rsi
	callq	_ZN78_$LT$core..result..Result$LT$T$C$$u20$E$GT$$u20$as$u20$core..ops..try..Try$GT$11into_result17hf905cbc80b520313E
	movzbl	416(%rsp), %eax
	movl	%eax, %ecx
	movb	%cl, %dl
	testb	$1, %dl
	movq	%rcx, 160(%rsp)
	je	.LBB71_30
	jmp	.LBB71_64
.LBB71_64:
	movq	160(%rsp), %rax
	subq	$1, %rax
	movq	%rax, 152(%rsp)
	je	.LBB71_31
	jmp	.LBB71_11
.LBB71_30:
	movq	424(%rsp), %rax
	movq	432(%rsp), %rcx
	movq	%rax, 400(%rsp)
	movq	%rcx, 408(%rsp)
	leaq	400(%rsp), %rdi
	callq	_ZN4core5alloc6Layout4size17h15dce328eb04a6a3E
	movq	%rax, 144(%rsp)
	jmp	.LBB71_35
.LBB71_31:
	movb	417(%rsp), %al
	andb	$1, %al
	movzbl	%al, %edi
	callq	_ZN50_$LT$T$u20$as$u20$core..convert..From$LT$T$GT$$GT$4from17h5a19c94bb2dd3397E
	movb	%al, 143(%rsp)
	movb	143(%rsp), %al
	movzbl	%al, %ecx
	andl	$1, %ecx
	movl	%ecx, %edi
	callq	_ZN78_$LT$core..result..Result$LT$T$C$$u20$E$GT$$u20$as$u20$core..ops..try..Try$GT$10from_error17h771398c2a6d6bd19E
	movb	%al, 311(%rsp)
	jmp	.LBB71_34
.LBB71_34:
	jmp	.LBB71_20
.LBB71_35:
	movq	144(%rsp), %rdi
	callq	_ZN5alloc7raw_vec11alloc_guard17hbc94e9da832c5439E
	movb	%al, 142(%rsp)
	movb	142(%rsp), %al
	movzbl	%al, %edi
	callq	_ZN78_$LT$core..result..Result$LT$T$C$$u20$E$GT$$u20$as$u20$core..ops..try..Try$GT$11into_result17h4d23964341725258E
	movb	%al, 471(%rsp)
	movb	471(%rsp), %al
	subb	$2, %al
	setne	%cl
	movzbl	%cl, %edx
	movl	%edx, %esi
	movb	%al, 141(%rsp)
	movq	%rsi, 128(%rsp)
	je	.LBB71_38
	jmp	.LBB71_65
.LBB71_65:
	movq	128(%rsp), %rax
	subq	$1, %rax
	movq	%rax, 120(%rsp)
	je	.LBB71_39
	jmp	.LBB71_11
.LBB71_38:
	movq	280(%rsp), %rdi
	callq	_ZN49_$LT$alloc..raw_vec..RawVec$LT$T$C$$u20$A$GT$$GT$14current_layout17h554ee3c6235bff2dE
	movq	%rdx, 488(%rsp)
	movq	%rax, 480(%rsp)
	jmp	.LBB71_42
.LBB71_39:
	movb	471(%rsp), %al
	andb	$1, %al
	movzbl	%al, %edi
	callq	_ZN50_$LT$T$u20$as$u20$core..convert..From$LT$T$GT$$GT$4from17h5a19c94bb2dd3397E
	movb	%al, 119(%rsp)
	movb	119(%rsp), %al
	movzbl	%al, %ecx
	andl	$1, %ecx
	movl	%ecx, %edi
	callq	_ZN78_$LT$core..result..Result$LT$T$C$$u20$E$GT$$u20$as$u20$core..ops..try..Try$GT$10from_error17h771398c2a6d6bd19E
	movb	%al, 311(%rsp)
	jmp	.LBB71_34
.LBB71_42:
	movq	488(%rsp), %rax
	testq	%rax, %rax
	setne	%cl
	movzbl	%cl, %edx
	movl	%edx, %eax
	movq	%rax, 104(%rsp)
	je	.LBB71_43
	jmp	.LBB71_66
.LBB71_66:
	movq	104(%rsp), %rax
	subq	$1, %rax
	movq	%rax, 96(%rsp)
	je	.LBB71_44
	jmp	.LBB71_11
.LBB71_43:
	movq	280(%rsp), %rax
	movq	400(%rsp), %rsi
	movq	408(%rsp), %rdx
	movq	%rax, %rdi
	callq	_ZN59_$LT$alloc..alloc..Global$u20$as$u20$core..alloc..Alloc$GT$5alloc17h18e22881dfbb3db1E
	movq	%rax, 472(%rsp)
	jmp	.LBB71_50
.LBB71_44:
	movq	480(%rsp), %rdx
	movq	488(%rsp), %rcx
	movq	280(%rsp), %rax
	movq	280(%rsp), %rsi
	movq	(%rsi), %rdi
	movq	%rdx, 88(%rsp)
	movq	%rcx, 80(%rsp)
	movq	%rax, 72(%rsp)
	callq	_ZN101_$LT$core..ptr..NonNull$LT$T$GT$$u20$as$u20$core..convert..From$LT$core..ptr..Unique$LT$T$GT$$GT$$GT$4from17h73a89a6ef97468e8E
	movq	%rax, 64(%rsp)
	jmp	.LBB71_46
.LBB71_45:
	xorl	%eax, %eax
	movl	%eax, %ecx
	leaq	472(%rsp), %rdx
	movq	%rdx, 496(%rsp)
	movb	309(%rsp), %sil
	andb	$1, %sil
	movb	%sil, 504(%rsp)
	movq	496(%rsp), %rdx
	cmpq	$0, (%rdx)
	movl	$1, %edx
	cmoveq	%rdx, %rcx
	cmpq	$1, %rcx
	je	.LBB71_53
	jmp	.LBB71_51
.LBB71_46:
	movq	64(%rsp), %rdi
	callq	_ZN36_$LT$core..ptr..NonNull$LT$T$GT$$GT$4cast17h30dc75a78800d755E
	movq	%rax, 56(%rsp)
	leaq	400(%rsp), %rdi
	callq	_ZN4core5alloc6Layout4size17h15dce328eb04a6a3E
	movq	%rax, 48(%rsp)
	movq	72(%rsp), %rdi
	movq	56(%rsp), %rsi
	movq	88(%rsp), %rdx
	movq	80(%rsp), %rcx
	movq	48(%rsp), %r8
	callq	_ZN59_$LT$alloc..alloc..Global$u20$as$u20$core..alloc..Alloc$GT$7realloc17hc997fae7cd1ab540E
	movq	%rax, 472(%rsp)
	jmp	.LBB71_45
.LBB71_50:
	jmp	.LBB71_45
.LBB71_51:
	movq	472(%rsp), %rdi
	callq	_ZN78_$LT$core..result..Result$LT$T$C$$u20$E$GT$$u20$as$u20$core..ops..try..Try$GT$11into_result17h168d1cd1be137596E
	movq	%rax, 512(%rsp)
	jmp	.LBB71_54
.LBB71_52:
	movq	400(%rsp), %rdi
	movq	408(%rsp), %rsi
	movq	_ZN5alloc5alloc18handle_alloc_error17ha47010db164a19ccE@GOTPCREL(%rip), %rax
	callq	*%rax
	ud2
.LBB71_53:
	movb	504(%rsp), %al
	andb	$1, %al
	movzbl	%al, %ecx
	movl	%ecx, %edx
	cmpq	$1, %rdx
	je	.LBB71_52
	jmp	.LBB71_51
.LBB71_54:
	movq	512(%rsp), %rax
	testq	%rax, %rax
	sete	%cl
	movzbl	%cl, %edx
	movl	%edx, %eax
	movq	%rax, 40(%rsp)
	jne	.LBB71_55
	jmp	.LBB71_67
.LBB71_67:
	movq	40(%rsp), %rax
	subq	$1, %rax
	movq	%rax, 32(%rsp)
	je	.LBB71_56
	jmp	.LBB71_11
.LBB71_55:
	movq	512(%rsp), %rdi
	callq	_ZN36_$LT$core..ptr..NonNull$LT$T$GT$$GT$4cast17h7e0212577170c99cE
	movq	%rax, 24(%rsp)
	jmp	.LBB71_59
.LBB71_56:
	callq	_ZN107_$LT$alloc..collections..CollectionAllocErr$u20$as$u20$core..convert..From$LT$core..alloc..AllocErr$GT$$GT$4from17hf3fbfeab3280aeb7E
	movb	%al, 23(%rsp)
	movb	23(%rsp), %al
	movzbl	%al, %ecx
	andl	$1, %ecx
	movl	%ecx, %edi
	callq	_ZN78_$LT$core..result..Result$LT$T$C$$u20$E$GT$$u20$as$u20$core..ops..try..Try$GT$10from_error17h771398c2a6d6bd19E
	movb	%al, 311(%rsp)
	jmp	.LBB71_34
.LBB71_59:
	movq	24(%rsp), %rdi
	callq	_ZN50_$LT$T$u20$as$u20$core..convert..Into$LT$U$GT$$GT$4into17h3a220d6ec0e5eb69E
	movq	%rax, 8(%rsp)
	movq	280(%rsp), %rax
	movq	8(%rsp), %rcx
	movq	%rcx, (%rax)
	movq	320(%rsp), %rdx
	movq	%rdx, 8(%rax)
	movb	$2, 311(%rsp)
	jmp	.LBB71_8
.Lfunc_end71:
	.size	_ZN49_$LT$alloc..raw_vec..RawVec$LT$T$C$$u20$A$GT$$GT$16reserve_internal17h63973c7ac51bfbefE, .Lfunc_end71-_ZN49_$LT$alloc..raw_vec..RawVec$LT$T$C$$u20$A$GT$$GT$16reserve_internal17h63973c7ac51bfbefE
	.cfi_endproc

	.section	".text._ZN49_$LT$alloc..raw_vec..RawVec$LT$T$C$$u20$A$GT$$GT$16reserve_internal17hed7dde4fc7682eebE","ax",@progbits
	.p2align	4, 0x90
	.type	_ZN49_$LT$alloc..raw_vec..RawVec$LT$T$C$$u20$A$GT$$GT$16reserve_internal17hed7dde4fc7682eebE,@function
_ZN49_$LT$alloc..raw_vec..RawVec$LT$T$C$$u20$A$GT$$GT$16reserve_internal17hed7dde4fc7682eebE:
	.cfi_startproc
	subq	$536, %rsp
	.cfi_def_cfa_offset 544
	movb	%r8b, %al
	movb	%cl, %r9b
	andb	$1, %al
	movb	%al, 310(%rsp)
	movb	%r9b, 309(%rsp)
	movq	%rdx, 296(%rsp)
	movq	%rsi, 288(%rsp)
	movq	%rdi, 280(%rsp)
	callq	_ZN4core3mem7size_of17h03b5324af02046fdE
	cmpq	$0, %rax
	jne	.LBB72_2
	movq	$-1, 528(%rsp)
	jmp	.LBB72_3
.LBB72_2:
	movq	280(%rsp), %rax
	movq	8(%rax), %rcx
	movq	%rcx, 528(%rsp)
.LBB72_3:
	movq	528(%rsp), %rdi
	movq	%rdi, 272(%rsp)
	movq	272(%rsp), %rdi
	movq	288(%rsp), %rsi
	callq	_ZN4core3num23_$LT$impl$u20$usize$GT$12wrapping_sub17hb395a5a57fe119c8E
	movq	%rax, 264(%rsp)
	movq	264(%rsp), %rax
	movq	296(%rsp), %rcx
	cmpq	%rcx, %rax
	jb	.LBB72_7
	movb	$2, 311(%rsp)
	jmp	.LBB72_8
.LBB72_7:
	movzbl	310(%rsp), %eax
	movl	%eax, %ecx
	movb	%cl, %dl
	testb	$1, %dl
	movq	%rcx, 256(%rsp)
	je	.LBB72_9
	jmp	.LBB72_61
.LBB72_61:
	movq	256(%rsp), %rax
	subq	$1, %rax
	movq	%rax, 248(%rsp)
	je	.LBB72_10
	jmp	.LBB72_11
.LBB72_8:
	movb	311(%rsp), %al
	addq	$536, %rsp
	.cfi_def_cfa_offset 8
	retq
.LBB72_9:
	.cfi_def_cfa_offset 544
	movq	288(%rsp), %rdi
	movq	296(%rsp), %rsi
	callq	_ZN4core3num23_$LT$impl$u20$usize$GT$11checked_add17hdbf569c01a5ee22dE
	movq	%rax, 240(%rsp)
	movq	%rdx, 232(%rsp)
	jmp	.LBB72_13
.LBB72_10:
	leaq	384(%rsp), %rdi
	movq	280(%rsp), %rsi
	movq	288(%rsp), %rdx
	movq	296(%rsp), %rcx
	callq	_ZN49_$LT$alloc..raw_vec..RawVec$LT$T$C$$u20$A$GT$$GT$18amortized_new_size17h9bf7d0b6ab76fe6dE
	jmp	.LBB72_21
.LBB72_11:
	ud2
.LBB72_12:
	movq	320(%rsp), %rdi
	callq	_ZN4core5alloc6Layout5array17h3c13e0bb6c550787E
	movq	%rax, 224(%rsp)
	movq	%rdx, 216(%rsp)
	jmp	.LBB72_27
.LBB72_13:
	movb	$0, 367(%rsp)
	movb	367(%rsp), %al
	andb	$1, %al
	leaq	344(%rsp), %rdi
	movq	240(%rsp), %rsi
	movq	232(%rsp), %rdx
	movzbl	%al, %ecx
	callq	_ZN38_$LT$core..option..Option$LT$T$GT$$GT$5ok_or17h9c98d7f9a8f501b2E
	leaq	328(%rsp), %rdi
	leaq	344(%rsp), %rsi
	callq	_ZN78_$LT$core..result..Result$LT$T$C$$u20$E$GT$$u20$as$u20$core..ops..try..Try$GT$11into_result17ha4a8c425cccc43b2E
	movzbl	328(%rsp), %eax
	movl	%eax, %ecx
	movb	%cl, %dl
	testb	$1, %dl
	movq	%rcx, 208(%rsp)
	je	.LBB72_16
	jmp	.LBB72_63
.LBB72_63:
	movq	208(%rsp), %rax
	subq	$1, %rax
	movq	%rax, 200(%rsp)
	je	.LBB72_17
	jmp	.LBB72_11
.LBB72_16:
	movq	336(%rsp), %rax
	movq	%rax, 320(%rsp)
	jmp	.LBB72_12
.LBB72_17:
	movb	329(%rsp), %al
	andb	$1, %al
	movzbl	%al, %edi
	callq	_ZN50_$LT$T$u20$as$u20$core..convert..From$LT$T$GT$$GT$4from17h5a19c94bb2dd3397E
	movb	%al, 199(%rsp)
	movb	199(%rsp), %al
	movzbl	%al, %ecx
	andl	$1, %ecx
	movl	%ecx, %edi
	callq	_ZN78_$LT$core..result..Result$LT$T$C$$u20$E$GT$$u20$as$u20$core..ops..try..Try$GT$10from_error17h771398c2a6d6bd19E
	movb	%al, 311(%rsp)
	jmp	.LBB72_20
.LBB72_20:
	jmp	.LBB72_8
.LBB72_21:
	leaq	368(%rsp), %rdi
	leaq	384(%rsp), %rsi
	callq	_ZN78_$LT$core..result..Result$LT$T$C$$u20$E$GT$$u20$as$u20$core..ops..try..Try$GT$11into_result17ha4a8c425cccc43b2E
	movzbl	368(%rsp), %eax
	movl	%eax, %ecx
	movb	%cl, %dl
	testb	$1, %dl
	movq	%rcx, 184(%rsp)
	je	.LBB72_23
	jmp	.LBB72_62
.LBB72_62:
	movq	184(%rsp), %rax
	subq	$1, %rax
	movq	%rax, 176(%rsp)
	je	.LBB72_24
	jmp	.LBB72_11
.LBB72_23:
	movq	376(%rsp), %rax
	movq	%rax, 320(%rsp)
	jmp	.LBB72_12
.LBB72_24:
	movb	369(%rsp), %al
	andb	$1, %al
	movzbl	%al, %edi
	callq	_ZN50_$LT$T$u20$as$u20$core..convert..From$LT$T$GT$$GT$4from17h5a19c94bb2dd3397E
	movb	%al, 175(%rsp)
	movb	175(%rsp), %al
	movzbl	%al, %ecx
	andl	$1, %ecx
	movl	%ecx, %edi
	callq	_ZN78_$LT$core..result..Result$LT$T$C$$u20$E$GT$$u20$as$u20$core..ops..try..Try$GT$10from_error17h771398c2a6d6bd19E
	movb	%al, 311(%rsp)
	jmp	.LBB72_20
.LBB72_27:
	leaq	440(%rsp), %rdi
	movq	224(%rsp), %rsi
	movq	216(%rsp), %rdx
	callq	_ZN47_$LT$core..result..Result$LT$T$C$$u20$E$GT$$GT$7map_err17h061acde6ca108491E
	leaq	416(%rsp), %rdi
	leaq	440(%rsp), %rsi
	callq	_ZN78_$LT$core..result..Result$LT$T$C$$u20$E$GT$$u20$as$u20$core..ops..try..Try$GT$11into_result17hf905cbc80b520313E
	movzbl	416(%rsp), %eax
	movl	%eax, %ecx
	movb	%cl, %dl
	testb	$1, %dl
	movq	%rcx, 160(%rsp)
	je	.LBB72_30
	jmp	.LBB72_64
.LBB72_64:
	movq	160(%rsp), %rax
	subq	$1, %rax
	movq	%rax, 152(%rsp)
	je	.LBB72_31
	jmp	.LBB72_11
.LBB72_30:
	movq	424(%rsp), %rax
	movq	432(%rsp), %rcx
	movq	%rax, 400(%rsp)
	movq	%rcx, 408(%rsp)
	leaq	400(%rsp), %rdi
	callq	_ZN4core5alloc6Layout4size17h15dce328eb04a6a3E
	movq	%rax, 144(%rsp)
	jmp	.LBB72_35
.LBB72_31:
	movb	417(%rsp), %al
	andb	$1, %al
	movzbl	%al, %edi
	callq	_ZN50_$LT$T$u20$as$u20$core..convert..From$LT$T$GT$$GT$4from17h5a19c94bb2dd3397E
	movb	%al, 143(%rsp)
	movb	143(%rsp), %al
	movzbl	%al, %ecx
	andl	$1, %ecx
	movl	%ecx, %edi
	callq	_ZN78_$LT$core..result..Result$LT$T$C$$u20$E$GT$$u20$as$u20$core..ops..try..Try$GT$10from_error17h771398c2a6d6bd19E
	movb	%al, 311(%rsp)
	jmp	.LBB72_34
.LBB72_34:
	jmp	.LBB72_20
.LBB72_35:
	movq	144(%rsp), %rdi
	callq	_ZN5alloc7raw_vec11alloc_guard17hbc94e9da832c5439E
	movb	%al, 142(%rsp)
	movb	142(%rsp), %al
	movzbl	%al, %edi
	callq	_ZN78_$LT$core..result..Result$LT$T$C$$u20$E$GT$$u20$as$u20$core..ops..try..Try$GT$11into_result17h4d23964341725258E
	movb	%al, 471(%rsp)
	movb	471(%rsp), %al
	subb	$2, %al
	setne	%cl
	movzbl	%cl, %edx
	movl	%edx, %esi
	movb	%al, 141(%rsp)
	movq	%rsi, 128(%rsp)
	je	.LBB72_38
	jmp	.LBB72_65
.LBB72_65:
	movq	128(%rsp), %rax
	subq	$1, %rax
	movq	%rax, 120(%rsp)
	je	.LBB72_39
	jmp	.LBB72_11
.LBB72_38:
	movq	280(%rsp), %rdi
	callq	_ZN49_$LT$alloc..raw_vec..RawVec$LT$T$C$$u20$A$GT$$GT$14current_layout17h906a98398db7da71E
	movq	%rdx, 488(%rsp)
	movq	%rax, 480(%rsp)
	jmp	.LBB72_42
.LBB72_39:
	movb	471(%rsp), %al
	andb	$1, %al
	movzbl	%al, %edi
	callq	_ZN50_$LT$T$u20$as$u20$core..convert..From$LT$T$GT$$GT$4from17h5a19c94bb2dd3397E
	movb	%al, 119(%rsp)
	movb	119(%rsp), %al
	movzbl	%al, %ecx
	andl	$1, %ecx
	movl	%ecx, %edi
	callq	_ZN78_$LT$core..result..Result$LT$T$C$$u20$E$GT$$u20$as$u20$core..ops..try..Try$GT$10from_error17h771398c2a6d6bd19E
	movb	%al, 311(%rsp)
	jmp	.LBB72_34
.LBB72_42:
	movq	488(%rsp), %rax
	testq	%rax, %rax
	setne	%cl
	movzbl	%cl, %edx
	movl	%edx, %eax
	movq	%rax, 104(%rsp)
	je	.LBB72_43
	jmp	.LBB72_66
.LBB72_66:
	movq	104(%rsp), %rax
	subq	$1, %rax
	movq	%rax, 96(%rsp)
	je	.LBB72_44
	jmp	.LBB72_11
.LBB72_43:
	movq	280(%rsp), %rax
	movq	400(%rsp), %rsi
	movq	408(%rsp), %rdx
	movq	%rax, %rdi
	callq	_ZN59_$LT$alloc..alloc..Global$u20$as$u20$core..alloc..Alloc$GT$5alloc17h18e22881dfbb3db1E
	movq	%rax, 472(%rsp)
	jmp	.LBB72_50
.LBB72_44:
	movq	480(%rsp), %rdx
	movq	488(%rsp), %rcx
	movq	280(%rsp), %rax
	movq	280(%rsp), %rsi
	movq	(%rsi), %rdi
	movq	%rdx, 88(%rsp)
	movq	%rcx, 80(%rsp)
	movq	%rax, 72(%rsp)
	callq	_ZN101_$LT$core..ptr..NonNull$LT$T$GT$$u20$as$u20$core..convert..From$LT$core..ptr..Unique$LT$T$GT$$GT$$GT$4from17hc079cc30bd85f186E
	movq	%rax, 64(%rsp)
	jmp	.LBB72_46
.LBB72_45:
	xorl	%eax, %eax
	movl	%eax, %ecx
	leaq	472(%rsp), %rdx
	movq	%rdx, 496(%rsp)
	movb	309(%rsp), %sil
	andb	$1, %sil
	movb	%sil, 504(%rsp)
	movq	496(%rsp), %rdx
	cmpq	$0, (%rdx)
	movl	$1, %edx
	cmoveq	%rdx, %rcx
	cmpq	$1, %rcx
	je	.LBB72_53
	jmp	.LBB72_51
.LBB72_46:
	movq	64(%rsp), %rdi
	callq	_ZN36_$LT$core..ptr..NonNull$LT$T$GT$$GT$4cast17hf723108d0c9fd30cE
	movq	%rax, 56(%rsp)
	leaq	400(%rsp), %rdi
	callq	_ZN4core5alloc6Layout4size17h15dce328eb04a6a3E
	movq	%rax, 48(%rsp)
	movq	72(%rsp), %rdi
	movq	56(%rsp), %rsi
	movq	88(%rsp), %rdx
	movq	80(%rsp), %rcx
	movq	48(%rsp), %r8
	callq	_ZN59_$LT$alloc..alloc..Global$u20$as$u20$core..alloc..Alloc$GT$7realloc17hc997fae7cd1ab540E
	movq	%rax, 472(%rsp)
	jmp	.LBB72_45
.LBB72_50:
	jmp	.LBB72_45
.LBB72_51:
	movq	472(%rsp), %rdi
	callq	_ZN78_$LT$core..result..Result$LT$T$C$$u20$E$GT$$u20$as$u20$core..ops..try..Try$GT$11into_result17h168d1cd1be137596E
	movq	%rax, 512(%rsp)
	jmp	.LBB72_54
.LBB72_52:
	movq	400(%rsp), %rdi
	movq	408(%rsp), %rsi
	movq	_ZN5alloc5alloc18handle_alloc_error17ha47010db164a19ccE@GOTPCREL(%rip), %rax
	callq	*%rax
	ud2
.LBB72_53:
	movb	504(%rsp), %al
	andb	$1, %al
	movzbl	%al, %ecx
	movl	%ecx, %edx
	cmpq	$1, %rdx
	je	.LBB72_52
	jmp	.LBB72_51
.LBB72_54:
	movq	512(%rsp), %rax
	testq	%rax, %rax
	sete	%cl
	movzbl	%cl, %edx
	movl	%edx, %eax
	movq	%rax, 40(%rsp)
	jne	.LBB72_55
	jmp	.LBB72_67
.LBB72_67:
	movq	40(%rsp), %rax
	subq	$1, %rax
	movq	%rax, 32(%rsp)
	je	.LBB72_56
	jmp	.LBB72_11
.LBB72_55:
	movq	512(%rsp), %rdi
	callq	_ZN36_$LT$core..ptr..NonNull$LT$T$GT$$GT$4cast17h228b148c78a28fabE
	movq	%rax, 24(%rsp)
	jmp	.LBB72_59
.LBB72_56:
	callq	_ZN107_$LT$alloc..collections..CollectionAllocErr$u20$as$u20$core..convert..From$LT$core..alloc..AllocErr$GT$$GT$4from17hf3fbfeab3280aeb7E
	movb	%al, 23(%rsp)
	movb	23(%rsp), %al
	movzbl	%al, %ecx
	andl	$1, %ecx
	movl	%ecx, %edi
	callq	_ZN78_$LT$core..result..Result$LT$T$C$$u20$E$GT$$u20$as$u20$core..ops..try..Try$GT$10from_error17h771398c2a6d6bd19E
	movb	%al, 311(%rsp)
	jmp	.LBB72_34
.LBB72_59:
	movq	24(%rsp), %rdi
	callq	_ZN50_$LT$T$u20$as$u20$core..convert..Into$LT$U$GT$$GT$4into17h315c8f0c101f62d5E
	movq	%rax, 8(%rsp)
	movq	280(%rsp), %rax
	movq	8(%rsp), %rcx
	movq	%rcx, (%rax)
	movq	320(%rsp), %rdx
	movq	%rdx, 8(%rax)
	movb	$2, 311(%rsp)
	jmp	.LBB72_8
.Lfunc_end72:
	.size	_ZN49_$LT$alloc..raw_vec..RawVec$LT$T$C$$u20$A$GT$$GT$16reserve_internal17hed7dde4fc7682eebE, .Lfunc_end72-_ZN49_$LT$alloc..raw_vec..RawVec$LT$T$C$$u20$A$GT$$GT$16reserve_internal17hed7dde4fc7682eebE
	.cfi_endproc

	.section	".text._ZN49_$LT$alloc..raw_vec..RawVec$LT$T$C$$u20$A$GT$$GT$16reserve_internal28_$u7b$$u7b$closure$u7d$$u7d$17h58bfc7148e1b3e04E","ax",@progbits
	.p2align	4, 0x90
	.type	_ZN49_$LT$alloc..raw_vec..RawVec$LT$T$C$$u20$A$GT$$GT$16reserve_internal28_$u7b$$u7b$closure$u7d$$u7d$17h58bfc7148e1b3e04E,@function
_ZN49_$LT$alloc..raw_vec..RawVec$LT$T$C$$u20$A$GT$$GT$16reserve_internal28_$u7b$$u7b$closure$u7d$$u7d$17h58bfc7148e1b3e04E:
	.cfi_startproc
	subq	$1, %rsp
	.cfi_def_cfa_offset 9
	movb	$0, (%rsp)
	movb	(%rsp), %al
	andb	$1, %al
	movzbl	%al, %eax
	addq	$1, %rsp
	.cfi_def_cfa_offset 8
	retq
.Lfunc_end73:
	.size	_ZN49_$LT$alloc..raw_vec..RawVec$LT$T$C$$u20$A$GT$$GT$16reserve_internal28_$u7b$$u7b$closure$u7d$$u7d$17h58bfc7148e1b3e04E, .Lfunc_end73-_ZN49_$LT$alloc..raw_vec..RawVec$LT$T$C$$u20$A$GT$$GT$16reserve_internal28_$u7b$$u7b$closure$u7d$$u7d$17h58bfc7148e1b3e04E
	.cfi_endproc

	.section	".text._ZN49_$LT$alloc..raw_vec..RawVec$LT$T$C$$u20$A$GT$$GT$16reserve_internal28_$u7b$$u7b$closure$u7d$$u7d$17he1daca1f8b8b0f33E","ax",@progbits
	.p2align	4, 0x90
	.type	_ZN49_$LT$alloc..raw_vec..RawVec$LT$T$C$$u20$A$GT$$GT$16reserve_internal28_$u7b$$u7b$closure$u7d$$u7d$17he1daca1f8b8b0f33E,@function
_ZN49_$LT$alloc..raw_vec..RawVec$LT$T$C$$u20$A$GT$$GT$16reserve_internal28_$u7b$$u7b$closure$u7d$$u7d$17he1daca1f8b8b0f33E:
	.cfi_startproc
	subq	$1, %rsp
	.cfi_def_cfa_offset 9
	movb	$0, (%rsp)
	movb	(%rsp), %al
	andb	$1, %al
	movzbl	%al, %eax
	addq	$1, %rsp
	.cfi_def_cfa_offset 8
	retq
.Lfunc_end74:
	.size	_ZN49_$LT$alloc..raw_vec..RawVec$LT$T$C$$u20$A$GT$$GT$16reserve_internal28_$u7b$$u7b$closure$u7d$$u7d$17he1daca1f8b8b0f33E, .Lfunc_end74-_ZN49_$LT$alloc..raw_vec..RawVec$LT$T$C$$u20$A$GT$$GT$16reserve_internal28_$u7b$$u7b$closure$u7d$$u7d$17he1daca1f8b8b0f33E
	.cfi_endproc

	.section	".text._ZN49_$LT$alloc..raw_vec..RawVec$LT$T$C$$u20$A$GT$$GT$18amortized_new_size17h9bf7d0b6ab76fe6dE","ax",@progbits
	.p2align	4, 0x90
	.type	_ZN49_$LT$alloc..raw_vec..RawVec$LT$T$C$$u20$A$GT$$GT$18amortized_new_size17h9bf7d0b6ab76fe6dE,@function
_ZN49_$LT$alloc..raw_vec..RawVec$LT$T$C$$u20$A$GT$$GT$18amortized_new_size17h9bf7d0b6ab76fe6dE:
	.cfi_startproc
	subq	$120, %rsp
	.cfi_def_cfa_offset 128
	movq	%rdi, %rax
	movq	%rdi, 72(%rsp)
	movq	%rdx, %rdi
	movq	%rsi, 64(%rsp)
	movq	%rcx, %rsi
	movq	%rax, 56(%rsp)
	callq	_ZN4core3num23_$LT$impl$u20$usize$GT$11checked_add17hdbf569c01a5ee22dE
	movq	%rax, 48(%rsp)
	movq	%rdx, 40(%rsp)
	movb	$0, 119(%rsp)
	movb	119(%rsp), %al
	andb	$1, %al
	leaq	96(%rsp), %rdi
	movq	48(%rsp), %rsi
	movq	40(%rsp), %rdx
	movzbl	%al, %ecx
	callq	_ZN38_$LT$core..option..Option$LT$T$GT$$GT$5ok_or17h9c98d7f9a8f501b2E
	leaq	80(%rsp), %rdi
	leaq	96(%rsp), %rsi
	callq	_ZN78_$LT$core..result..Result$LT$T$C$$u20$E$GT$$u20$as$u20$core..ops..try..Try$GT$11into_result17ha4a8c425cccc43b2E
	movzbl	80(%rsp), %eax
	movl	%eax, %ecx
	movb	%cl, %dl
	testb	$1, %dl
	movq	%rcx, 32(%rsp)
	je	.LBB75_5
	jmp	.LBB75_11
.LBB75_11:
	movq	32(%rsp), %rax
	subq	$1, %rax
	movq	%rax, 24(%rsp)
	je	.LBB75_6
	jmp	.LBB75_4
.LBB75_4:
	ud2
.LBB75_5:
	movq	88(%rsp), %rsi
	movq	64(%rsp), %rax
	movq	8(%rax), %rcx
	shlq	$1, %rcx
	movq	%rcx, %rdi
	callq	_ZN4core3cmp3max17hb58a14bff45051ceE
	movq	%rax, 16(%rsp)
	jmp	.LBB75_10
.LBB75_6:
	movb	81(%rsp), %al
	andb	$1, %al
	movzbl	%al, %edi
	callq	_ZN50_$LT$T$u20$as$u20$core..convert..From$LT$T$GT$$GT$4from17h5a19c94bb2dd3397E
	movb	%al, 15(%rsp)
	movb	15(%rsp), %al
	movzbl	%al, %ecx
	andl	$1, %ecx
	movq	72(%rsp), %rdi
	movl	%ecx, %esi
	callq	_ZN78_$LT$core..result..Result$LT$T$C$$u20$E$GT$$u20$as$u20$core..ops..try..Try$GT$10from_error17h049e8682d8aaa632E
	jmp	.LBB75_9
.LBB75_9:
	movq	56(%rsp), %rax
	addq	$120, %rsp
	.cfi_def_cfa_offset 8
	retq
.LBB75_10:
	.cfi_def_cfa_offset 128
	movq	72(%rsp), %rax
	movq	16(%rsp), %rcx
	movq	%rcx, 8(%rax)
	movb	$0, (%rax)
	jmp	.LBB75_9
.Lfunc_end75:
	.size	_ZN49_$LT$alloc..raw_vec..RawVec$LT$T$C$$u20$A$GT$$GT$18amortized_new_size17h9bf7d0b6ab76fe6dE, .Lfunc_end75-_ZN49_$LT$alloc..raw_vec..RawVec$LT$T$C$$u20$A$GT$$GT$18amortized_new_size17h9bf7d0b6ab76fe6dE
	.cfi_endproc

	.section	".text._ZN49_$LT$alloc..raw_vec..RawVec$LT$T$C$$u20$A$GT$$GT$18amortized_new_size17hd39149f2a95cc7fcE","ax",@progbits
	.p2align	4, 0x90
	.type	_ZN49_$LT$alloc..raw_vec..RawVec$LT$T$C$$u20$A$GT$$GT$18amortized_new_size17hd39149f2a95cc7fcE,@function
_ZN49_$LT$alloc..raw_vec..RawVec$LT$T$C$$u20$A$GT$$GT$18amortized_new_size17hd39149f2a95cc7fcE:
	.cfi_startproc
	subq	$120, %rsp
	.cfi_def_cfa_offset 128
	movq	%rdi, %rax
	movq	%rdi, 72(%rsp)
	movq	%rdx, %rdi
	movq	%rsi, 64(%rsp)
	movq	%rcx, %rsi
	movq	%rax, 56(%rsp)
	callq	_ZN4core3num23_$LT$impl$u20$usize$GT$11checked_add17hdbf569c01a5ee22dE
	movq	%rax, 48(%rsp)
	movq	%rdx, 40(%rsp)
	movb	$0, 119(%rsp)
	movb	119(%rsp), %al
	andb	$1, %al
	leaq	96(%rsp), %rdi
	movq	48(%rsp), %rsi
	movq	40(%rsp), %rdx
	movzbl	%al, %ecx
	callq	_ZN38_$LT$core..option..Option$LT$T$GT$$GT$5ok_or17h9c98d7f9a8f501b2E
	leaq	80(%rsp), %rdi
	leaq	96(%rsp), %rsi
	callq	_ZN78_$LT$core..result..Result$LT$T$C$$u20$E$GT$$u20$as$u20$core..ops..try..Try$GT$11into_result17ha4a8c425cccc43b2E
	movzbl	80(%rsp), %eax
	movl	%eax, %ecx
	movb	%cl, %dl
	testb	$1, %dl
	movq	%rcx, 32(%rsp)
	je	.LBB76_5
	jmp	.LBB76_11
.LBB76_11:
	movq	32(%rsp), %rax
	subq	$1, %rax
	movq	%rax, 24(%rsp)
	je	.LBB76_6
	jmp	.LBB76_4
.LBB76_4:
	ud2
.LBB76_5:
	movq	88(%rsp), %rsi
	movq	64(%rsp), %rax
	movq	8(%rax), %rcx
	shlq	$1, %rcx
	movq	%rcx, %rdi
	callq	_ZN4core3cmp3max17hb58a14bff45051ceE
	movq	%rax, 16(%rsp)
	jmp	.LBB76_10
.LBB76_6:
	movb	81(%rsp), %al
	andb	$1, %al
	movzbl	%al, %edi
	callq	_ZN50_$LT$T$u20$as$u20$core..convert..From$LT$T$GT$$GT$4from17h5a19c94bb2dd3397E
	movb	%al, 15(%rsp)
	movb	15(%rsp), %al
	movzbl	%al, %ecx
	andl	$1, %ecx
	movq	72(%rsp), %rdi
	movl	%ecx, %esi
	callq	_ZN78_$LT$core..result..Result$LT$T$C$$u20$E$GT$$u20$as$u20$core..ops..try..Try$GT$10from_error17h049e8682d8aaa632E
	jmp	.LBB76_9
.LBB76_9:
	movq	56(%rsp), %rax
	addq	$120, %rsp
	.cfi_def_cfa_offset 8
	retq
.LBB76_10:
	.cfi_def_cfa_offset 128
	movq	72(%rsp), %rax
	movq	16(%rsp), %rcx
	movq	%rcx, 8(%rax)
	movb	$0, (%rax)
	jmp	.LBB76_9
.Lfunc_end76:
	.size	_ZN49_$LT$alloc..raw_vec..RawVec$LT$T$C$$u20$A$GT$$GT$18amortized_new_size17hd39149f2a95cc7fcE, .Lfunc_end76-_ZN49_$LT$alloc..raw_vec..RawVec$LT$T$C$$u20$A$GT$$GT$18amortized_new_size17hd39149f2a95cc7fcE
	.cfi_endproc

	.section	".text._ZN49_$LT$alloc..raw_vec..RawVec$LT$T$C$$u20$A$GT$$GT$3ptr17h2e72585d47435d78E","ax",@progbits
	.p2align	4, 0x90
	.type	_ZN49_$LT$alloc..raw_vec..RawVec$LT$T$C$$u20$A$GT$$GT$3ptr17h2e72585d47435d78E,@function
_ZN49_$LT$alloc..raw_vec..RawVec$LT$T$C$$u20$A$GT$$GT$3ptr17h2e72585d47435d78E:
	.cfi_startproc
	pushq	%rax
	.cfi_def_cfa_offset 16
	movq	(%rdi), %rdi
	callq	_ZN35_$LT$core..ptr..Unique$LT$T$GT$$GT$6as_ptr17he176ab834ba1e1caE
	movq	%rax, (%rsp)
	movq	(%rsp), %rax
	popq	%rcx
	.cfi_def_cfa_offset 8
	retq
.Lfunc_end77:
	.size	_ZN49_$LT$alloc..raw_vec..RawVec$LT$T$C$$u20$A$GT$$GT$3ptr17h2e72585d47435d78E, .Lfunc_end77-_ZN49_$LT$alloc..raw_vec..RawVec$LT$T$C$$u20$A$GT$$GT$3ptr17h2e72585d47435d78E
	.cfi_endproc

	.section	".text._ZN49_$LT$alloc..raw_vec..RawVec$LT$T$C$$u20$A$GT$$GT$3ptr17hdc52d0e2c596e07fE","ax",@progbits
	.p2align	4, 0x90
	.type	_ZN49_$LT$alloc..raw_vec..RawVec$LT$T$C$$u20$A$GT$$GT$3ptr17hdc52d0e2c596e07fE,@function
_ZN49_$LT$alloc..raw_vec..RawVec$LT$T$C$$u20$A$GT$$GT$3ptr17hdc52d0e2c596e07fE:
	.cfi_startproc
	pushq	%rax
	.cfi_def_cfa_offset 16
	movq	(%rdi), %rdi
	callq	_ZN35_$LT$core..ptr..Unique$LT$T$GT$$GT$6as_ptr17h8c27853d8038bdadE
	movq	%rax, (%rsp)
	movq	(%rsp), %rax
	popq	%rcx
	.cfi_def_cfa_offset 8
	retq
.Lfunc_end78:
	.size	_ZN49_$LT$alloc..raw_vec..RawVec$LT$T$C$$u20$A$GT$$GT$3ptr17hdc52d0e2c596e07fE, .Lfunc_end78-_ZN49_$LT$alloc..raw_vec..RawVec$LT$T$C$$u20$A$GT$$GT$3ptr17hdc52d0e2c596e07fE
	.cfi_endproc

	.section	".text._ZN49_$LT$alloc..raw_vec..RawVec$LT$T$C$$u20$A$GT$$GT$7reserve17h7abb3a56190d017bE","ax",@progbits
	.p2align	4, 0x90
	.type	_ZN49_$LT$alloc..raw_vec..RawVec$LT$T$C$$u20$A$GT$$GT$7reserve17h7abb3a56190d017bE,@function
_ZN49_$LT$alloc..raw_vec..RawVec$LT$T$C$$u20$A$GT$$GT$7reserve17h7abb3a56190d017bE:
	.cfi_startproc
	subq	$40, %rsp
	.cfi_def_cfa_offset 48
	movb	$1, 38(%rsp)
	movb	$1, 39(%rsp)
	movb	38(%rsp), %al
	movb	39(%rsp), %cl
	andb	$1, %al
	andb	$1, %cl
	movzbl	%al, %r8d
	movb	%cl, 36(%rsp)
	movl	%r8d, %ecx
	movb	36(%rsp), %al
	movzbl	%al, %r8d
	callq	_ZN49_$LT$alloc..raw_vec..RawVec$LT$T$C$$u20$A$GT$$GT$16reserve_internal17h63973c7ac51bfbefE
	movb	%al, 37(%rsp)
	movb	37(%rsp), %al
	subb	$2, %al
	setne	%cl
	movzbl	%cl, %edx
	movl	%edx, %esi
	movb	%al, 35(%rsp)
	movq	%rsi, 24(%rsp)
	je	.LBB79_2
	jmp	.LBB79_7
.LBB79_7:
	movq	24(%rsp), %rax
	subq	$1, %rax
	movq	%rax, 16(%rsp)
	je	.LBB79_5
	jmp	.LBB79_6
.LBB79_2:
	addq	$40, %rsp
	.cfi_def_cfa_offset 8
	retq
.LBB79_3:
	.cfi_def_cfa_offset 48
	movq	_ZN5alloc7raw_vec17capacity_overflow17he82aaa6e8f2774efE@GOTPCREL(%rip), %rax
	callq	*%rax
	ud2
.LBB79_4:
	leaq	.L__unnamed_4(%rip), %rdi
	movq	_ZN4core9panicking5panic17h13421bef49a1c627E@GOTPCREL(%rip), %rax
	callq	*%rax
	ud2
.LBB79_5:
	movzbl	37(%rsp), %eax
	movl	%eax, %ecx
	movb	%cl, %dl
	testb	$1, %dl
	movq	%rcx, 8(%rsp)
	je	.LBB79_3
	jmp	.LBB79_8
.LBB79_8:
	movq	8(%rsp), %rax
	subq	$1, %rax
	movq	%rax, (%rsp)
	je	.LBB79_4
	jmp	.LBB79_6
.LBB79_6:
	ud2
.Lfunc_end79:
	.size	_ZN49_$LT$alloc..raw_vec..RawVec$LT$T$C$$u20$A$GT$$GT$7reserve17h7abb3a56190d017bE, .Lfunc_end79-_ZN49_$LT$alloc..raw_vec..RawVec$LT$T$C$$u20$A$GT$$GT$7reserve17h7abb3a56190d017bE
	.cfi_endproc

	.section	".text._ZN49_$LT$alloc..raw_vec..RawVec$LT$T$C$$u20$A$GT$$GT$7reserve17hf61f4a8b579e7b24E","ax",@progbits
	.p2align	4, 0x90
	.type	_ZN49_$LT$alloc..raw_vec..RawVec$LT$T$C$$u20$A$GT$$GT$7reserve17hf61f4a8b579e7b24E,@function
_ZN49_$LT$alloc..raw_vec..RawVec$LT$T$C$$u20$A$GT$$GT$7reserve17hf61f4a8b579e7b24E:
	.cfi_startproc
	subq	$40, %rsp
	.cfi_def_cfa_offset 48
	movb	$1, 38(%rsp)
	movb	$1, 39(%rsp)
	movb	38(%rsp), %al
	movb	39(%rsp), %cl
	andb	$1, %al
	andb	$1, %cl
	movzbl	%al, %r8d
	movb	%cl, 36(%rsp)
	movl	%r8d, %ecx
	movb	36(%rsp), %al
	movzbl	%al, %r8d
	callq	_ZN49_$LT$alloc..raw_vec..RawVec$LT$T$C$$u20$A$GT$$GT$16reserve_internal17hed7dde4fc7682eebE
	movb	%al, 37(%rsp)
	movb	37(%rsp), %al
	subb	$2, %al
	setne	%cl
	movzbl	%cl, %edx
	movl	%edx, %esi
	movb	%al, 35(%rsp)
	movq	%rsi, 24(%rsp)
	je	.LBB80_2
	jmp	.LBB80_7
.LBB80_7:
	movq	24(%rsp), %rax
	subq	$1, %rax
	movq	%rax, 16(%rsp)
	je	.LBB80_5
	jmp	.LBB80_6
.LBB80_2:
	addq	$40, %rsp
	.cfi_def_cfa_offset 8
	retq
.LBB80_3:
	.cfi_def_cfa_offset 48
	movq	_ZN5alloc7raw_vec17capacity_overflow17he82aaa6e8f2774efE@GOTPCREL(%rip), %rax
	callq	*%rax
	ud2
.LBB80_4:
	leaq	.L__unnamed_4(%rip), %rdi
	movq	_ZN4core9panicking5panic17h13421bef49a1c627E@GOTPCREL(%rip), %rax
	callq	*%rax
	ud2
.LBB80_5:
	movzbl	37(%rsp), %eax
	movl	%eax, %ecx
	movb	%cl, %dl
	testb	$1, %dl
	movq	%rcx, 8(%rsp)
	je	.LBB80_3
	jmp	.LBB80_8
.LBB80_8:
	movq	8(%rsp), %rax
	subq	$1, %rax
	movq	%rax, (%rsp)
	je	.LBB80_4
	jmp	.LBB80_6
.LBB80_6:
	ud2
.Lfunc_end80:
	.size	_ZN49_$LT$alloc..raw_vec..RawVec$LT$T$C$$u20$A$GT$$GT$7reserve17hf61f4a8b579e7b24E, .Lfunc_end80-_ZN49_$LT$alloc..raw_vec..RawVec$LT$T$C$$u20$A$GT$$GT$7reserve17hf61f4a8b579e7b24E
	.cfi_endproc

	.section	".text._ZN49_$LT$usize$u20$as$u20$core..iter..range..Step$GT$9add_usize17h723d065915cb183eE","ax",@progbits
	.p2align	4, 0x90
	.type	_ZN49_$LT$usize$u20$as$u20$core..iter..range..Step$GT$9add_usize17h723d065915cb183eE,@function
_ZN49_$LT$usize$u20$as$u20$core..iter..range..Step$GT$9add_usize17h723d065915cb183eE:
	.cfi_startproc
	subq	$40, %rsp
	.cfi_def_cfa_offset 48
	movq	%rdi, 24(%rsp)
	movq	%rsi, %rdi
	callq	_ZN53_$LT$T$u20$as$u20$core..convert..TryFrom$LT$U$GT$$GT$8try_from17h4f97eccc21cd165fE
	movq	%rax, 32(%rsp)
	movq	32(%rsp), %rsi
	movq	24(%rsp), %rax
	movq	(%rax), %rdi
	callq	_ZN4core3num23_$LT$impl$u20$usize$GT$11checked_add17hdbf569c01a5ee22dE
	movq	%rax, 16(%rsp)
	movq	%rdx, 8(%rsp)
	movq	16(%rsp), %rax
	movq	8(%rsp), %rdx
	addq	$40, %rsp
	.cfi_def_cfa_offset 8
	retq
.Lfunc_end81:
	.size	_ZN49_$LT$usize$u20$as$u20$core..iter..range..Step$GT$9add_usize17h723d065915cb183eE, .Lfunc_end81-_ZN49_$LT$usize$u20$as$u20$core..iter..range..Step$GT$9add_usize17h723d065915cb183eE
	.cfi_endproc

	.section	.text._ZN4core3any6TypeId2of17h04b644bb8574a80cE,"ax",@progbits
	.p2align	4, 0x90
	.type	_ZN4core3any6TypeId2of17h04b644bb8574a80cE,@function
_ZN4core3any6TypeId2of17h04b644bb8574a80cE:
	.cfi_startproc
	subq	$24, %rsp
	.cfi_def_cfa_offset 32
	movabsq	$7549865886324542212, %rax
	movq	%rax, 16(%rsp)
	movq	16(%rsp), %rax
	movq	%rax, (%rsp)
	movq	(%rsp), %rax
	movq	%rax, 8(%rsp)
	movq	8(%rsp), %rax
	addq	$24, %rsp
	.cfi_def_cfa_offset 8
	retq
.Lfunc_end82:
	.size	_ZN4core3any6TypeId2of17h04b644bb8574a80cE, .Lfunc_end82-_ZN4core3any6TypeId2of17h04b644bb8574a80cE
	.cfi_endproc

	.section	.text._ZN4core3any6TypeId2of17h3027112c41a8baf2E,"ax",@progbits
	.p2align	4, 0x90
	.type	_ZN4core3any6TypeId2of17h3027112c41a8baf2E,@function
_ZN4core3any6TypeId2of17h3027112c41a8baf2E:
	.cfi_startproc
	subq	$24, %rsp
	.cfi_def_cfa_offset 32
	movabsq	$1229646359891580772, %rax
	movq	%rax, 16(%rsp)
	movq	16(%rsp), %rax
	movq	%rax, (%rsp)
	movq	(%rsp), %rax
	movq	%rax, 8(%rsp)
	movq	8(%rsp), %rax
	addq	$24, %rsp
	.cfi_def_cfa_offset 8
	retq
.Lfunc_end83:
	.size	_ZN4core3any6TypeId2of17h3027112c41a8baf2E, .Lfunc_end83-_ZN4core3any6TypeId2of17h3027112c41a8baf2E
	.cfi_endproc

	.section	.text._ZN4core3cmp3Ord3max17hde3e74c634d5e722E,"ax",@progbits
	.p2align	4, 0x90
	.type	_ZN4core3cmp3Ord3max17hde3e74c634d5e722E,@function
_ZN4core3cmp3Ord3max17hde3e74c634d5e722E:
.Lfunc_begin12:
	.cfi_startproc
	.cfi_personality 155, DW.ref.rust_eh_personality
	.cfi_lsda 27, .Lexception12
	subq	$56, %rsp
	.cfi_def_cfa_offset 64
	movq	%rdi, 8(%rsp)
	movq	%rsi, 16(%rsp)
	movb	$0, 38(%rsp)
	movb	$0, 39(%rsp)
	movb	$1, 38(%rsp)
	movb	$1, 39(%rsp)
.Ltmp106:
	leaq	16(%rsp), %rdi
	leaq	8(%rsp), %rsi
	callq	_ZN4core3cmp5impls57_$LT$impl$u20$core..cmp..PartialOrd$u20$for$u20$usize$GT$2ge17h26babfa569bbce96E
.Ltmp107:
	movb	%al, 7(%rsp)
	jmp	.LBB84_2
.LBB84_1:
	movq	40(%rsp), %rdi
	callq	_Unwind_Resume@PLT
	ud2
.LBB84_2:
	movb	7(%rsp), %al
	testb	$1, %al
	jne	.LBB84_5
	jmp	.LBB84_6
.LBB84_3:
	testb	$1, 38(%rsp)
	jne	.LBB84_10
	jmp	.LBB84_1
.LBB84_4:
	movb	$0, 39(%rsp)
	jmp	.LBB84_3
.LBB84_5:
	movb	$0, 39(%rsp)
	movq	16(%rsp), %rax
	movq	%rax, 24(%rsp)
	jmp	.LBB84_7
.LBB84_6:
	movb	$0, 38(%rsp)
	movq	8(%rsp), %rax
	movq	%rax, 24(%rsp)
.LBB84_7:
	testb	$1, 39(%rsp)
	jne	.LBB84_11
.LBB84_8:
	testb	$1, 38(%rsp)
	jne	.LBB84_12
.LBB84_9:
	movq	24(%rsp), %rax
	addq	$56, %rsp
	.cfi_def_cfa_offset 8
	retq
.LBB84_10:
	.cfi_def_cfa_offset 64
	movb	$0, 38(%rsp)
	jmp	.LBB84_1
.LBB84_11:
	movb	$0, 39(%rsp)
	jmp	.LBB84_8
.LBB84_12:
	movb	$0, 38(%rsp)
	jmp	.LBB84_9
.LBB84_13:
.Ltmp108:
	movl	%edx, %ecx
	movq	%rax, 40(%rsp)
	movl	%ecx, 48(%rsp)
	jmp	.LBB84_4
.Lfunc_end84:
	.size	_ZN4core3cmp3Ord3max17hde3e74c634d5e722E, .Lfunc_end84-_ZN4core3cmp3Ord3max17hde3e74c634d5e722E
	.cfi_endproc
	.section	.gcc_except_table,"a",@progbits
	.p2align	2
GCC_except_table84:
.Lexception12:
	.byte	255
	.byte	255
	.byte	1
	.uleb128 .Lcst_end12-.Lcst_begin12
.Lcst_begin12:
	.uleb128 .Ltmp106-.Lfunc_begin12
	.uleb128 .Ltmp107-.Ltmp106
	.uleb128 .Ltmp108-.Lfunc_begin12
	.byte	0
	.uleb128 .Ltmp107-.Lfunc_begin12
	.uleb128 .Lfunc_end84-.Ltmp107
	.byte	0
	.byte	0
.Lcst_end12:
	.p2align	2

	.section	.text._ZN4core3cmp3Ord3min17hd9f01dc07c305320E,"ax",@progbits
	.p2align	4, 0x90
	.type	_ZN4core3cmp3Ord3min17hd9f01dc07c305320E,@function
_ZN4core3cmp3Ord3min17hd9f01dc07c305320E:
.Lfunc_begin13:
	.cfi_startproc
	.cfi_personality 155, DW.ref.rust_eh_personality
	.cfi_lsda 27, .Lexception13
	subq	$56, %rsp
	.cfi_def_cfa_offset 64
	movq	%rdi, 8(%rsp)
	movq	%rsi, 16(%rsp)
	movb	$0, 38(%rsp)
	movb	$0, 39(%rsp)
	movb	$1, 38(%rsp)
	movb	$1, 39(%rsp)
.Ltmp109:
	leaq	8(%rsp), %rdi
	leaq	16(%rsp), %rsi
	callq	_ZN4core3cmp5impls57_$LT$impl$u20$core..cmp..PartialOrd$u20$for$u20$usize$GT$2le17h909796c883a1d6c7E
.Ltmp110:
	movb	%al, 7(%rsp)
	jmp	.LBB85_2
.LBB85_1:
	movq	40(%rsp), %rdi
	callq	_Unwind_Resume@PLT
	ud2
.LBB85_2:
	movb	7(%rsp), %al
	testb	$1, %al
	jne	.LBB85_5
	jmp	.LBB85_6
.LBB85_3:
	testb	$1, 38(%rsp)
	jne	.LBB85_10
	jmp	.LBB85_1
.LBB85_4:
	movb	$0, 39(%rsp)
	jmp	.LBB85_3
.LBB85_5:
	movb	$0, 38(%rsp)
	movq	8(%rsp), %rax
	movq	%rax, 24(%rsp)
	jmp	.LBB85_7
.LBB85_6:
	movb	$0, 39(%rsp)
	movq	16(%rsp), %rax
	movq	%rax, 24(%rsp)
.LBB85_7:
	testb	$1, 39(%rsp)
	jne	.LBB85_11
.LBB85_8:
	testb	$1, 38(%rsp)
	jne	.LBB85_12
.LBB85_9:
	movq	24(%rsp), %rax
	addq	$56, %rsp
	.cfi_def_cfa_offset 8
	retq
.LBB85_10:
	.cfi_def_cfa_offset 64
	movb	$0, 38(%rsp)
	jmp	.LBB85_1
.LBB85_11:
	movb	$0, 39(%rsp)
	jmp	.LBB85_8
.LBB85_12:
	movb	$0, 38(%rsp)
	jmp	.LBB85_9
.LBB85_13:
.Ltmp111:
	movl	%edx, %ecx
	movq	%rax, 40(%rsp)
	movl	%ecx, 48(%rsp)
	jmp	.LBB85_4
.Lfunc_end85:
	.size	_ZN4core3cmp3Ord3min17hd9f01dc07c305320E, .Lfunc_end85-_ZN4core3cmp3Ord3min17hd9f01dc07c305320E
	.cfi_endproc
	.section	.gcc_except_table,"a",@progbits
	.p2align	2
GCC_except_table85:
.Lexception13:
	.byte	255
	.byte	255
	.byte	1
	.uleb128 .Lcst_end13-.Lcst_begin13
.Lcst_begin13:
	.uleb128 .Ltmp109-.Lfunc_begin13
	.uleb128 .Ltmp110-.Ltmp109
	.uleb128 .Ltmp111-.Lfunc_begin13
	.byte	0
	.uleb128 .Ltmp110-.Lfunc_begin13
	.uleb128 .Lfunc_end85-.Ltmp110
	.byte	0
	.byte	0
.Lcst_end13:
	.p2align	2

	.section	.text._ZN4core3cmp3max17hb58a14bff45051ceE,"ax",@progbits
	.p2align	4, 0x90
	.type	_ZN4core3cmp3max17hb58a14bff45051ceE,@function
_ZN4core3cmp3max17hb58a14bff45051ceE:
	.cfi_startproc
	pushq	%rax
	.cfi_def_cfa_offset 16
	callq	_ZN4core3cmp3Ord3max17hde3e74c634d5e722E
	movq	%rax, (%rsp)
	movq	(%rsp), %rax
	popq	%rcx
	.cfi_def_cfa_offset 8
	retq
.Lfunc_end86:
	.size	_ZN4core3cmp3max17hb58a14bff45051ceE, .Lfunc_end86-_ZN4core3cmp3max17hb58a14bff45051ceE
	.cfi_endproc

	.section	".text._ZN4core3cmp5impls55_$LT$impl$u20$core..cmp..PartialEq$u20$for$u20$bool$GT$2eq17hb414968b06a56758E","ax",@progbits
	.p2align	4, 0x90
	.type	_ZN4core3cmp5impls55_$LT$impl$u20$core..cmp..PartialEq$u20$for$u20$bool$GT$2eq17hb414968b06a56758E,@function
_ZN4core3cmp5impls55_$LT$impl$u20$core..cmp..PartialEq$u20$for$u20$bool$GT$2eq17hb414968b06a56758E:
	.cfi_startproc
	movb	(%rdi), %al
	movb	(%rsi), %cl
	xorb	%cl, %al
	xorb	$1, %al
	andb	$1, %al
	movzbl	%al, %eax
	retq
.Lfunc_end87:
	.size	_ZN4core3cmp5impls55_$LT$impl$u20$core..cmp..PartialEq$u20$for$u20$bool$GT$2eq17hb414968b06a56758E, .Lfunc_end87-_ZN4core3cmp5impls55_$LT$impl$u20$core..cmp..PartialEq$u20$for$u20$bool$GT$2eq17hb414968b06a56758E
	.cfi_endproc

	.section	".text._ZN4core3cmp5impls57_$LT$impl$u20$core..cmp..PartialOrd$u20$for$u20$usize$GT$2ge17h26babfa569bbce96E","ax",@progbits
	.p2align	4, 0x90
	.type	_ZN4core3cmp5impls57_$LT$impl$u20$core..cmp..PartialOrd$u20$for$u20$usize$GT$2ge17h26babfa569bbce96E,@function
_ZN4core3cmp5impls57_$LT$impl$u20$core..cmp..PartialOrd$u20$for$u20$usize$GT$2ge17h26babfa569bbce96E:
	.cfi_startproc
	movq	(%rdi), %rdi
	cmpq	(%rsi), %rdi
	setae	%al
	andb	$1, %al
	movzbl	%al, %eax
	retq
.Lfunc_end88:
	.size	_ZN4core3cmp5impls57_$LT$impl$u20$core..cmp..PartialOrd$u20$for$u20$usize$GT$2ge17h26babfa569bbce96E, .Lfunc_end88-_ZN4core3cmp5impls57_$LT$impl$u20$core..cmp..PartialOrd$u20$for$u20$usize$GT$2ge17h26babfa569bbce96E
	.cfi_endproc

	.section	".text._ZN4core3cmp5impls57_$LT$impl$u20$core..cmp..PartialOrd$u20$for$u20$usize$GT$2le17h909796c883a1d6c7E","ax",@progbits
	.p2align	4, 0x90
	.type	_ZN4core3cmp5impls57_$LT$impl$u20$core..cmp..PartialOrd$u20$for$u20$usize$GT$2le17h909796c883a1d6c7E,@function
_ZN4core3cmp5impls57_$LT$impl$u20$core..cmp..PartialOrd$u20$for$u20$usize$GT$2le17h909796c883a1d6c7E:
	.cfi_startproc
	movq	(%rdi), %rdi
	cmpq	(%rsi), %rdi
	setbe	%al
	andb	$1, %al
	movzbl	%al, %eax
	retq
.Lfunc_end89:
	.size	_ZN4core3cmp5impls57_$LT$impl$u20$core..cmp..PartialOrd$u20$for$u20$usize$GT$2le17h909796c883a1d6c7E, .Lfunc_end89-_ZN4core3cmp5impls57_$LT$impl$u20$core..cmp..PartialOrd$u20$for$u20$usize$GT$2le17h909796c883a1d6c7E
	.cfi_endproc

	.section	".text._ZN4core3cmp5impls57_$LT$impl$u20$core..cmp..PartialOrd$u20$for$u20$usize$GT$2lt17h7d2b50b8f40b34bfE","ax",@progbits
	.p2align	4, 0x90
	.type	_ZN4core3cmp5impls57_$LT$impl$u20$core..cmp..PartialOrd$u20$for$u20$usize$GT$2lt17h7d2b50b8f40b34bfE,@function
_ZN4core3cmp5impls57_$LT$impl$u20$core..cmp..PartialOrd$u20$for$u20$usize$GT$2lt17h7d2b50b8f40b34bfE:
	.cfi_startproc
	movq	(%rdi), %rdi
	cmpq	(%rsi), %rdi
	setb	%al
	andb	$1, %al
	movzbl	%al, %eax
	retq
.Lfunc_end90:
	.size	_ZN4core3cmp5impls57_$LT$impl$u20$core..cmp..PartialOrd$u20$for$u20$usize$GT$2lt17h7d2b50b8f40b34bfE, .Lfunc_end90-_ZN4core3cmp5impls57_$LT$impl$u20$core..cmp..PartialOrd$u20$for$u20$usize$GT$2lt17h7d2b50b8f40b34bfE
	.cfi_endproc

	.section	.text._ZN4core3fmt10ArgumentV13new17h04793433105fecaeE,"ax",@progbits
	.p2align	4, 0x90
	.type	_ZN4core3fmt10ArgumentV13new17h04793433105fecaeE,@function
_ZN4core3fmt10ArgumentV13new17h04793433105fecaeE:
	.cfi_startproc
	subq	$56, %rsp
	.cfi_def_cfa_offset 64
	movq	%rsi, 40(%rsp)
	movq	40(%rsp), %rsi
	movq	%rdi, 16(%rsp)
	movq	%rsi, 8(%rsp)
	movq	16(%rsp), %rax
	movq	%rax, 48(%rsp)
	movq	48(%rsp), %rcx
	movq	%rcx, (%rsp)
	movq	(%rsp), %rax
	movq	%rax, 24(%rsp)
	movq	8(%rsp), %rcx
	movq	%rcx, 32(%rsp)
	movq	24(%rsp), %rax
	movq	32(%rsp), %rdx
	addq	$56, %rsp
	.cfi_def_cfa_offset 8
	retq
.Lfunc_end91:
	.size	_ZN4core3fmt10ArgumentV13new17h04793433105fecaeE, .Lfunc_end91-_ZN4core3fmt10ArgumentV13new17h04793433105fecaeE
	.cfi_endproc

	.section	.text._ZN4core3fmt10ArgumentV13new17h3eb9a28a10562062E,"ax",@progbits
	.p2align	4, 0x90
	.type	_ZN4core3fmt10ArgumentV13new17h3eb9a28a10562062E,@function
_ZN4core3fmt10ArgumentV13new17h3eb9a28a10562062E:
	.cfi_startproc
	subq	$56, %rsp
	.cfi_def_cfa_offset 64
	movq	%rsi, 40(%rsp)
	movq	40(%rsp), %rsi
	movq	%rdi, 16(%rsp)
	movq	%rsi, 8(%rsp)
	movq	16(%rsp), %rax
	movq	%rax, 48(%rsp)
	movq	48(%rsp), %rcx
	movq	%rcx, (%rsp)
	movq	(%rsp), %rax
	movq	%rax, 24(%rsp)
	movq	8(%rsp), %rcx
	movq	%rcx, 32(%rsp)
	movq	24(%rsp), %rax
	movq	32(%rsp), %rdx
	addq	$56, %rsp
	.cfi_def_cfa_offset 8
	retq
.Lfunc_end92:
	.size	_ZN4core3fmt10ArgumentV13new17h3eb9a28a10562062E, .Lfunc_end92-_ZN4core3fmt10ArgumentV13new17h3eb9a28a10562062E
	.cfi_endproc

	.section	.text._ZN4core3fmt10ArgumentV13new17h3f030788f55cb41cE,"ax",@progbits
	.p2align	4, 0x90
	.type	_ZN4core3fmt10ArgumentV13new17h3f030788f55cb41cE,@function
_ZN4core3fmt10ArgumentV13new17h3f030788f55cb41cE:
	.cfi_startproc
	subq	$56, %rsp
	.cfi_def_cfa_offset 64
	movq	%rsi, 40(%rsp)
	movq	40(%rsp), %rsi
	movq	%rdi, 16(%rsp)
	movq	%rsi, 8(%rsp)
	movq	16(%rsp), %rax
	movq	%rax, 48(%rsp)
	movq	48(%rsp), %rcx
	movq	%rcx, (%rsp)
	movq	(%rsp), %rax
	movq	%rax, 24(%rsp)
	movq	8(%rsp), %rcx
	movq	%rcx, 32(%rsp)
	movq	24(%rsp), %rax
	movq	32(%rsp), %rdx
	addq	$56, %rsp
	.cfi_def_cfa_offset 8
	retq
.Lfunc_end93:
	.size	_ZN4core3fmt10ArgumentV13new17h3f030788f55cb41cE, .Lfunc_end93-_ZN4core3fmt10ArgumentV13new17h3f030788f55cb41cE
	.cfi_endproc

	.section	.text._ZN4core3fmt10ArgumentV13new17h45614ca26c3e0e7cE,"ax",@progbits
	.p2align	4, 0x90
	.type	_ZN4core3fmt10ArgumentV13new17h45614ca26c3e0e7cE,@function
_ZN4core3fmt10ArgumentV13new17h45614ca26c3e0e7cE:
	.cfi_startproc
	subq	$56, %rsp
	.cfi_def_cfa_offset 64
	movq	%rsi, 40(%rsp)
	movq	40(%rsp), %rsi
	movq	%rdi, 16(%rsp)
	movq	%rsi, 8(%rsp)
	movq	16(%rsp), %rax
	movq	%rax, 48(%rsp)
	movq	48(%rsp), %rcx
	movq	%rcx, (%rsp)
	movq	(%rsp), %rax
	movq	%rax, 24(%rsp)
	movq	8(%rsp), %rcx
	movq	%rcx, 32(%rsp)
	movq	24(%rsp), %rax
	movq	32(%rsp), %rdx
	addq	$56, %rsp
	.cfi_def_cfa_offset 8
	retq
.Lfunc_end94:
	.size	_ZN4core3fmt10ArgumentV13new17h45614ca26c3e0e7cE, .Lfunc_end94-_ZN4core3fmt10ArgumentV13new17h45614ca26c3e0e7cE
	.cfi_endproc

	.section	.text._ZN4core3fmt10ArgumentV13new17h49a9a52261c2eb43E,"ax",@progbits
	.p2align	4, 0x90
	.type	_ZN4core3fmt10ArgumentV13new17h49a9a52261c2eb43E,@function
_ZN4core3fmt10ArgumentV13new17h49a9a52261c2eb43E:
	.cfi_startproc
	subq	$56, %rsp
	.cfi_def_cfa_offset 64
	movq	%rsi, 40(%rsp)
	movq	40(%rsp), %rsi
	movq	%rdi, 16(%rsp)
	movq	%rsi, 8(%rsp)
	movq	16(%rsp), %rax
	movq	%rax, 48(%rsp)
	movq	48(%rsp), %rcx
	movq	%rcx, (%rsp)
	movq	(%rsp), %rax
	movq	%rax, 24(%rsp)
	movq	8(%rsp), %rcx
	movq	%rcx, 32(%rsp)
	movq	24(%rsp), %rax
	movq	32(%rsp), %rdx
	addq	$56, %rsp
	.cfi_def_cfa_offset 8
	retq
.Lfunc_end95:
	.size	_ZN4core3fmt10ArgumentV13new17h49a9a52261c2eb43E, .Lfunc_end95-_ZN4core3fmt10ArgumentV13new17h49a9a52261c2eb43E
	.cfi_endproc

	.section	.text._ZN4core3fmt10ArgumentV13new17h8b019cc6924e94a6E,"ax",@progbits
	.p2align	4, 0x90
	.type	_ZN4core3fmt10ArgumentV13new17h8b019cc6924e94a6E,@function
_ZN4core3fmt10ArgumentV13new17h8b019cc6924e94a6E:
	.cfi_startproc
	subq	$56, %rsp
	.cfi_def_cfa_offset 64
	movq	%rsi, 40(%rsp)
	movq	40(%rsp), %rsi
	movq	%rdi, 16(%rsp)
	movq	%rsi, 8(%rsp)
	movq	16(%rsp), %rax
	movq	%rax, 48(%rsp)
	movq	48(%rsp), %rcx
	movq	%rcx, (%rsp)
	movq	(%rsp), %rax
	movq	%rax, 24(%rsp)
	movq	8(%rsp), %rcx
	movq	%rcx, 32(%rsp)
	movq	24(%rsp), %rax
	movq	32(%rsp), %rdx
	addq	$56, %rsp
	.cfi_def_cfa_offset 8
	retq
.Lfunc_end96:
	.size	_ZN4core3fmt10ArgumentV13new17h8b019cc6924e94a6E, .Lfunc_end96-_ZN4core3fmt10ArgumentV13new17h8b019cc6924e94a6E
	.cfi_endproc

	.section	.text._ZN4core3fmt10ArgumentV13new17h9162587ba6c678f6E,"ax",@progbits
	.p2align	4, 0x90
	.type	_ZN4core3fmt10ArgumentV13new17h9162587ba6c678f6E,@function
_ZN4core3fmt10ArgumentV13new17h9162587ba6c678f6E:
	.cfi_startproc
	subq	$56, %rsp
	.cfi_def_cfa_offset 64
	movq	%rsi, 40(%rsp)
	movq	40(%rsp), %rsi
	movq	%rdi, 16(%rsp)
	movq	%rsi, 8(%rsp)
	movq	16(%rsp), %rax
	movq	%rax, 48(%rsp)
	movq	48(%rsp), %rcx
	movq	%rcx, (%rsp)
	movq	(%rsp), %rax
	movq	%rax, 24(%rsp)
	movq	8(%rsp), %rcx
	movq	%rcx, 32(%rsp)
	movq	24(%rsp), %rax
	movq	32(%rsp), %rdx
	addq	$56, %rsp
	.cfi_def_cfa_offset 8
	retq
.Lfunc_end97:
	.size	_ZN4core3fmt10ArgumentV13new17h9162587ba6c678f6E, .Lfunc_end97-_ZN4core3fmt10ArgumentV13new17h9162587ba6c678f6E
	.cfi_endproc

	.section	.text._ZN4core3fmt10ArgumentV13new17hd2d5bbeaff23b7fbE,"ax",@progbits
	.p2align	4, 0x90
	.type	_ZN4core3fmt10ArgumentV13new17hd2d5bbeaff23b7fbE,@function
_ZN4core3fmt10ArgumentV13new17hd2d5bbeaff23b7fbE:
	.cfi_startproc
	subq	$56, %rsp
	.cfi_def_cfa_offset 64
	movq	%rsi, 40(%rsp)
	movq	40(%rsp), %rsi
	movq	%rdi, 16(%rsp)
	movq	%rsi, 8(%rsp)
	movq	16(%rsp), %rax
	movq	%rax, 48(%rsp)
	movq	48(%rsp), %rcx
	movq	%rcx, (%rsp)
	movq	(%rsp), %rax
	movq	%rax, 24(%rsp)
	movq	8(%rsp), %rcx
	movq	%rcx, 32(%rsp)
	movq	24(%rsp), %rax
	movq	32(%rsp), %rdx
	addq	$56, %rsp
	.cfi_def_cfa_offset 8
	retq
.Lfunc_end98:
	.size	_ZN4core3fmt10ArgumentV13new17hd2d5bbeaff23b7fbE, .Lfunc_end98-_ZN4core3fmt10ArgumentV13new17hd2d5bbeaff23b7fbE
	.cfi_endproc

	.section	".text._ZN4core3fmt3num52_$LT$impl$u20$core..fmt..Debug$u20$for$u20$usize$GT$3fmt17h816529966a5cce0bE","ax",@progbits
	.p2align	4, 0x90
	.type	_ZN4core3fmt3num52_$LT$impl$u20$core..fmt..Debug$u20$for$u20$usize$GT$3fmt17h816529966a5cce0bE,@function
_ZN4core3fmt3num52_$LT$impl$u20$core..fmt..Debug$u20$for$u20$usize$GT$3fmt17h816529966a5cce0bE:
	.cfi_startproc
	subq	$40, %rsp
	.cfi_def_cfa_offset 48
	movq	%rdi, 24(%rsp)
	movq	%rsi, %rdi
	movq	%rsi, 16(%rsp)
	callq	*_ZN4core3fmt9Formatter15debug_lower_hex17h97466e89a5e9a666E@GOTPCREL(%rip)
	movb	%al, 15(%rsp)
	movb	15(%rsp), %al
	testb	$1, %al
	jne	.LBB99_2
	jmp	.LBB99_3
.LBB99_2:
	movq	24(%rsp), %rdi
	movq	16(%rsp), %rsi
	callq	*_ZN4core3fmt3num55_$LT$impl$u20$core..fmt..LowerHex$u20$for$u20$usize$GT$3fmt17hf084780014bd58a6E@GOTPCREL(%rip)
	andb	$1, %al
	movb	%al, 39(%rsp)
	jmp	.LBB99_4
.LBB99_3:
	movq	16(%rsp), %rdi
	callq	*_ZN4core3fmt9Formatter15debug_upper_hex17h75813bd06658c3fbE@GOTPCREL(%rip)
	movb	%al, 14(%rsp)
	jmp	.LBB99_5
.LBB99_4:
	jmp	.LBB99_11
.LBB99_5:
	movb	14(%rsp), %al
	testb	$1, %al
	jne	.LBB99_6
	jmp	.LBB99_7
.LBB99_6:
	movq	24(%rsp), %rdi
	movq	16(%rsp), %rsi
	callq	*_ZN4core3fmt3num55_$LT$impl$u20$core..fmt..UpperHex$u20$for$u20$usize$GT$3fmt17hc0d18d969f3a7c22E@GOTPCREL(%rip)
	andb	$1, %al
	movb	%al, 39(%rsp)
	jmp	.LBB99_8
.LBB99_7:
	movq	24(%rsp), %rdi
	movq	16(%rsp), %rsi
	callq	*_ZN4core3fmt3num54_$LT$impl$u20$core..fmt..Display$u20$for$u20$usize$GT$3fmt17h5c80813cb10e3dbbE@GOTPCREL(%rip)
	andb	$1, %al
	movb	%al, 39(%rsp)
	jmp	.LBB99_9
.LBB99_8:
	jmp	.LBB99_10
.LBB99_9:
	jmp	.LBB99_10
.LBB99_10:
	jmp	.LBB99_11
.LBB99_11:
	movb	39(%rsp), %al
	andb	$1, %al
	movzbl	%al, %eax
	addq	$40, %rsp
	.cfi_def_cfa_offset 8
	retq
.Lfunc_end99:
	.size	_ZN4core3fmt3num52_$LT$impl$u20$core..fmt..Debug$u20$for$u20$usize$GT$3fmt17h816529966a5cce0bE, .Lfunc_end99-_ZN4core3fmt3num52_$LT$impl$u20$core..fmt..Debug$u20$for$u20$usize$GT$3fmt17h816529966a5cce0bE
	.cfi_endproc

	.section	.text._ZN4core3fmt8builders9DebugList7entries17hef8754ae21a8a8c2E,"ax",@progbits
	.p2align	4, 0x90
	.type	_ZN4core3fmt8builders9DebugList7entries17hef8754ae21a8a8c2E,@function
_ZN4core3fmt8builders9DebugList7entries17hef8754ae21a8a8c2E:
.Lfunc_begin14:
	.cfi_startproc
	.cfi_personality 155, DW.ref.rust_eh_personality
	.cfi_lsda 27, .Lexception14
	subq	$136, %rsp
	.cfi_def_cfa_offset 144
	movb	$0, 119(%rsp)
	movq	%rdi, 64(%rsp)
	movq	%rsi, %rdi
	movq	%rdx, %rsi
	callq	_ZN54_$LT$I$u20$as$u20$core..iter..traits..IntoIterator$GT$9into_iter17h0e9fec015d95c612E
	movq	%rax, 56(%rsp)
	movq	%rdx, 48(%rsp)
	jmp	.LBB100_2
.LBB100_1:
	movq	120(%rsp), %rdi
	callq	_Unwind_Resume@PLT
	ud2
.LBB100_2:
	movq	56(%rsp), %rax
	movq	%rax, 80(%rsp)
	movq	48(%rsp), %rcx
	movq	%rcx, 88(%rsp)
.LBB100_3:
.Ltmp112:
	leaq	80(%rsp), %rdi
	callq	_ZN91_$LT$core..slice..Iter$LT$$u27$a$C$$u20$T$GT$$u20$as$u20$core..iter..iterator..Iterator$GT$4next17he720a33f9c3b1045E
.Ltmp113:
	movq	%rax, 40(%rsp)
	jmp	.LBB100_5
.LBB100_4:
	jmp	.LBB100_1
.LBB100_5:
	movq	40(%rsp), %rax
	movq	%rax, 96(%rsp)
	movq	96(%rsp), %rcx
	testq	%rcx, %rcx
	setne	%dl
	movzbl	%dl, %esi
	movl	%esi, %ecx
	movq	%rcx, 32(%rsp)
	je	.LBB100_6
	jmp	.LBB100_20
.LBB100_20:
	movq	32(%rsp), %rax
	subq	$1, %rax
	movq	%rax, 24(%rsp)
	je	.LBB100_8
	jmp	.LBB100_7
.LBB100_6:
	jmp	.LBB100_9
.LBB100_7:
	ud2
.LBB100_8:
	xorl	%eax, %eax
	movl	%eax, %ecx
	movq	96(%rsp), %rdx
	movb	$1, 119(%rsp)
	cmpq	$0, 96(%rsp)
	movl	$1, %esi
	cmoveq	%rcx, %rsi
	cmpq	$1, %rsi
	movq	%rdx, 16(%rsp)
	je	.LBB100_16
	jmp	.LBB100_17
.LBB100_9:
	movb	$0, 119(%rsp)
	jmp	.LBB100_13
.LBB100_10:
	jmp	.LBB100_12
.LBB100_11:
	jmp	.LBB100_15
.LBB100_12:
	movb	$0, 119(%rsp)
	jmp	.LBB100_3
.LBB100_13:
	movq	64(%rsp), %rax
	addq	$136, %rsp
	.cfi_def_cfa_offset 8
	retq
.LBB100_14:
	.cfi_def_cfa_offset 144
	movb	$0, 119(%rsp)
	jmp	.LBB100_4
.LBB100_15:
	testb	$1, 119(%rsp)
	jne	.LBB100_14
	jmp	.LBB100_4
.LBB100_16:
	movb	$0, 119(%rsp)
	movq	16(%rsp), %rax
	movq	%rax, 104(%rsp)
.Ltmp115:
	leaq	.L__unnamed_5(%rip), %rdx
	movq	_ZN4core3fmt8builders9DebugList5entry17h8f273bdb9424bb93E@GOTPCREL(%rip), %rcx
	leaq	104(%rsp), %rsi
	movq	64(%rsp), %rdi
	callq	*%rcx
.Ltmp116:
	movq	%rax, 8(%rsp)
	jmp	.LBB100_10
.LBB100_17:
	jmp	.LBB100_16
.LBB100_18:
.Ltmp114:
	movl	%edx, %ecx
	movq	%rax, 120(%rsp)
	movl	%ecx, 128(%rsp)
	jmp	.LBB100_15
.LBB100_19:
.Ltmp117:
	movl	%edx, %ecx
	movq	%rax, 120(%rsp)
	movl	%ecx, 128(%rsp)
	jmp	.LBB100_11
.Lfunc_end100:
	.size	_ZN4core3fmt8builders9DebugList7entries17hef8754ae21a8a8c2E, .Lfunc_end100-_ZN4core3fmt8builders9DebugList7entries17hef8754ae21a8a8c2E
	.cfi_endproc
	.section	.gcc_except_table,"a",@progbits
	.p2align	2
GCC_except_table100:
.Lexception14:
	.byte	255
	.byte	255
	.byte	1
	.uleb128 .Lcst_end14-.Lcst_begin14
.Lcst_begin14:
	.uleb128 .Lfunc_begin14-.Lfunc_begin14
	.uleb128 .Ltmp112-.Lfunc_begin14
	.byte	0
	.byte	0
	.uleb128 .Ltmp112-.Lfunc_begin14
	.uleb128 .Ltmp113-.Ltmp112
	.uleb128 .Ltmp114-.Lfunc_begin14
	.byte	0
	.uleb128 .Ltmp115-.Lfunc_begin14
	.uleb128 .Ltmp116-.Ltmp115
	.uleb128 .Ltmp117-.Lfunc_begin14
	.byte	0
.Lcst_end14:
	.p2align	2

	.section	.text._ZN4core3fmt9Arguments16new_v1_formatted17ha64219216ef84a84E,"ax",@progbits
	.p2align	4, 0x90
	.type	_ZN4core3fmt9Arguments16new_v1_formatted17ha64219216ef84a84E,@function
_ZN4core3fmt9Arguments16new_v1_formatted17ha64219216ef84a84E:
	.cfi_startproc
	subq	$16, %rsp
	.cfi_def_cfa_offset 24
	movq	%rdi, %rax
	movq	24(%rsp), %r10
	movq	%r9, (%rsp)
	movq	%r10, 8(%rsp)
	movq	%rsi, (%rdi)
	movq	%rdx, 8(%rdi)
	movq	(%rsp), %rdx
	movq	8(%rsp), %rsi
	movq	%rdx, 16(%rdi)
	movq	%rsi, 24(%rdi)
	movq	%rcx, 32(%rdi)
	movq	%r8, 40(%rdi)
	addq	$16, %rsp
	.cfi_def_cfa_offset 8
	retq
.Lfunc_end101:
	.size	_ZN4core3fmt9Arguments16new_v1_formatted17ha64219216ef84a84E, .Lfunc_end101-_ZN4core3fmt9Arguments16new_v1_formatted17ha64219216ef84a84E
	.cfi_endproc

	.section	.text._ZN4core3fmt9Arguments6new_v117hc12a649348abbc6fE,"ax",@progbits
	.p2align	4, 0x90
	.type	_ZN4core3fmt9Arguments6new_v117hc12a649348abbc6fE,@function
_ZN4core3fmt9Arguments6new_v117hc12a649348abbc6fE:
	.cfi_startproc
	subq	$16, %rsp
	.cfi_def_cfa_offset 24
	movq	%rdi, %rax
	movq	$0, (%rsp)
	movq	%rsi, (%rdi)
	movq	%rdx, 8(%rdi)
	movq	(%rsp), %rdx
	movq	8(%rsp), %rsi
	movq	%rdx, 16(%rdi)
	movq	%rsi, 24(%rdi)
	movq	%rcx, 32(%rdi)
	movq	%r8, 40(%rdi)
	addq	$16, %rsp
	.cfi_def_cfa_offset 8
	retq
.Lfunc_end102:
	.size	_ZN4core3fmt9Arguments6new_v117hc12a649348abbc6fE, .Lfunc_end102-_ZN4core3fmt9Arguments6new_v117hc12a649348abbc6fE
	.cfi_endproc

	.section	.text._ZN4core3mem4swap17h9954735ca800fd13E,"ax",@progbits
	.p2align	4, 0x90
	.type	_ZN4core3mem4swap17h9954735ca800fd13E,@function
_ZN4core3mem4swap17h9954735ca800fd13E:
	.cfi_startproc
	pushq	%rax
	.cfi_def_cfa_offset 16
	callq	_ZN4core3ptr23swap_nonoverlapping_one17heca6ec9be78eb9edE
	popq	%rax
	.cfi_def_cfa_offset 8
	retq
.Lfunc_end103:
	.size	_ZN4core3mem4swap17h9954735ca800fd13E, .Lfunc_end103-_ZN4core3mem4swap17h9954735ca800fd13E
	.cfi_endproc

	.section	.text._ZN4core3mem4swap17hae1f9e26dfe76405E,"ax",@progbits
	.p2align	4, 0x90
	.type	_ZN4core3mem4swap17hae1f9e26dfe76405E,@function
_ZN4core3mem4swap17hae1f9e26dfe76405E:
	.cfi_startproc
	pushq	%rax
	.cfi_def_cfa_offset 16
	callq	_ZN4core3ptr23swap_nonoverlapping_one17hf95e4cdceb1cb654E
	popq	%rax
	.cfi_def_cfa_offset 8
	retq
.Lfunc_end104:
	.size	_ZN4core3mem4swap17hae1f9e26dfe76405E, .Lfunc_end104-_ZN4core3mem4swap17hae1f9e26dfe76405E
	.cfi_endproc

	.section	.text._ZN4core3mem6forget17h6814acafedd3dcbdE,"ax",@progbits
	.p2align	4, 0x90
	.type	_ZN4core3mem6forget17h6814acafedd3dcbdE,@function
_ZN4core3mem6forget17h6814acafedd3dcbdE:
	.cfi_startproc
	subq	$16, %rsp
	.cfi_def_cfa_offset 24
	movq	%rdi, (%rsp)
	movq	%rsi, 8(%rsp)
	addq	$16, %rsp
	.cfi_def_cfa_offset 8
	retq
.Lfunc_end105:
	.size	_ZN4core3mem6forget17h6814acafedd3dcbdE, .Lfunc_end105-_ZN4core3mem6forget17h6814acafedd3dcbdE
	.cfi_endproc

	.section	.text._ZN4core3mem6forget17hc436107cd20cbe54E,"ax",@progbits
	.p2align	4, 0x90
	.type	_ZN4core3mem6forget17hc436107cd20cbe54E,@function
_ZN4core3mem6forget17hc436107cd20cbe54E:
	.cfi_startproc
	subq	$16, %rsp
	.cfi_def_cfa_offset 24
	movq	%rdi, (%rsp)
	movq	%rsi, 8(%rsp)
	addq	$16, %rsp
	.cfi_def_cfa_offset 8
	retq
.Lfunc_end106:
	.size	_ZN4core3mem6forget17hc436107cd20cbe54E, .Lfunc_end106-_ZN4core3mem6forget17hc436107cd20cbe54E
	.cfi_endproc

	.section	.text._ZN4core3mem7replace17h5812c967a4a173cdE,"ax",@progbits
	.p2align	4, 0x90
	.type	_ZN4core3mem7replace17h5812c967a4a173cdE,@function
_ZN4core3mem7replace17h5812c967a4a173cdE:
.Lfunc_begin15:
	.cfi_startproc
	.cfi_personality 155, DW.ref.rust_eh_personality
	.cfi_lsda 27, .Lexception15
	subq	$40, %rsp
	.cfi_def_cfa_offset 48
	movq	%rsi, 8(%rsp)
	movq	%rdx, 16(%rsp)
.Ltmp118:
	leaq	8(%rsp), %rsi
	callq	_ZN4core3mem4swap17hae1f9e26dfe76405E
.Ltmp119:
	jmp	.LBB107_2
.LBB107_1:
	movq	24(%rsp), %rdi
	callq	_Unwind_Resume@PLT
	ud2
.LBB107_2:
	movq	8(%rsp), %rax
	movq	16(%rsp), %rdx
	addq	$40, %rsp
	.cfi_def_cfa_offset 8
	retq
.LBB107_3:
	.cfi_def_cfa_offset 48
	jmp	.LBB107_1
.LBB107_4:
.Ltmp120:
	movl	%edx, %ecx
	movq	%rax, 24(%rsp)
	movl	%ecx, 32(%rsp)
	jmp	.LBB107_3
.Lfunc_end107:
	.size	_ZN4core3mem7replace17h5812c967a4a173cdE, .Lfunc_end107-_ZN4core3mem7replace17h5812c967a4a173cdE
	.cfi_endproc
	.section	.gcc_except_table,"a",@progbits
	.p2align	2
GCC_except_table107:
.Lexception15:
	.byte	255
	.byte	255
	.byte	1
	.uleb128 .Lcst_end15-.Lcst_begin15
.Lcst_begin15:
	.uleb128 .Ltmp118-.Lfunc_begin15
	.uleb128 .Ltmp119-.Ltmp118
	.uleb128 .Ltmp120-.Lfunc_begin15
	.byte	0
	.uleb128 .Ltmp119-.Lfunc_begin15
	.uleb128 .Lfunc_end107-.Ltmp119
	.byte	0
	.byte	0
.Lcst_end15:
	.p2align	2

	.section	.text._ZN4core3mem7size_of17h03b5324af02046fdE,"ax",@progbits
	.p2align	4, 0x90
	.type	_ZN4core3mem7size_of17h03b5324af02046fdE,@function
_ZN4core3mem7size_of17h03b5324af02046fdE:
	.cfi_startproc
	subq	$16, %rsp
	.cfi_def_cfa_offset 24
	movq	$1, 8(%rsp)
	movq	8(%rsp), %rax
	movq	%rax, (%rsp)
	movq	(%rsp), %rax
	addq	$16, %rsp
	.cfi_def_cfa_offset 8
	retq
.Lfunc_end108:
	.size	_ZN4core3mem7size_of17h03b5324af02046fdE, .Lfunc_end108-_ZN4core3mem7size_of17h03b5324af02046fdE
	.cfi_endproc

	.section	.text._ZN4core3mem7size_of17h436ecd71989f1da2E,"ax",@progbits
	.p2align	4, 0x90
	.type	_ZN4core3mem7size_of17h436ecd71989f1da2E,@function
_ZN4core3mem7size_of17h436ecd71989f1da2E:
	.cfi_startproc
	subq	$16, %rsp
	.cfi_def_cfa_offset 24
	movq	$256, 8(%rsp)
	movq	8(%rsp), %rax
	movq	%rax, (%rsp)
	movq	(%rsp), %rax
	addq	$16, %rsp
	.cfi_def_cfa_offset 8
	retq
.Lfunc_end109:
	.size	_ZN4core3mem7size_of17h436ecd71989f1da2E, .Lfunc_end109-_ZN4core3mem7size_of17h436ecd71989f1da2E
	.cfi_endproc

	.section	.text._ZN4core3mem7size_of17h82455ecdfec7abc1E,"ax",@progbits
	.p2align	4, 0x90
	.type	_ZN4core3mem7size_of17h82455ecdfec7abc1E,@function
_ZN4core3mem7size_of17h82455ecdfec7abc1E:
	.cfi_startproc
	subq	$16, %rsp
	.cfi_def_cfa_offset 24
	movq	$8, 8(%rsp)
	movq	8(%rsp), %rax
	movq	%rax, (%rsp)
	movq	(%rsp), %rax
	addq	$16, %rsp
	.cfi_def_cfa_offset 8
	retq
.Lfunc_end110:
	.size	_ZN4core3mem7size_of17h82455ecdfec7abc1E, .Lfunc_end110-_ZN4core3mem7size_of17h82455ecdfec7abc1E
	.cfi_endproc

	.section	.text._ZN4core3mem7size_of17h9ba6aaedf169be5bE,"ax",@progbits
	.p2align	4, 0x90
	.type	_ZN4core3mem7size_of17h9ba6aaedf169be5bE,@function
_ZN4core3mem7size_of17h9ba6aaedf169be5bE:
	.cfi_startproc
	subq	$16, %rsp
	.cfi_def_cfa_offset 24
	movq	$32, 8(%rsp)
	movq	8(%rsp), %rax
	movq	%rax, (%rsp)
	movq	(%rsp), %rax
	addq	$16, %rsp
	.cfi_def_cfa_offset 8
	retq
.Lfunc_end111:
	.size	_ZN4core3mem7size_of17h9ba6aaedf169be5bE, .Lfunc_end111-_ZN4core3mem7size_of17h9ba6aaedf169be5bE
	.cfi_endproc

	.section	.text._ZN4core3mem7size_of17hfc045ff1e1a57948E,"ax",@progbits
	.p2align	4, 0x90
	.type	_ZN4core3mem7size_of17hfc045ff1e1a57948E,@function
_ZN4core3mem7size_of17hfc045ff1e1a57948E:
	.cfi_startproc
	subq	$16, %rsp
	.cfi_def_cfa_offset 24
	movq	$16, 8(%rsp)
	movq	8(%rsp), %rax
	movq	%rax, (%rsp)
	movq	(%rsp), %rax
	addq	$16, %rsp
	.cfi_def_cfa_offset 8
	retq
.Lfunc_end112:
	.size	_ZN4core3mem7size_of17hfc045ff1e1a57948E, .Lfunc_end112-_ZN4core3mem7size_of17hfc045ff1e1a57948E
	.cfi_endproc

	.section	.text._ZN4core3mem8align_of17h5beb0207f74c96b9E,"ax",@progbits
	.p2align	4, 0x90
	.type	_ZN4core3mem8align_of17h5beb0207f74c96b9E,@function
_ZN4core3mem8align_of17h5beb0207f74c96b9E:
	.cfi_startproc
	subq	$16, %rsp
	.cfi_def_cfa_offset 24
	movq	$8, 8(%rsp)
	movq	8(%rsp), %rax
	movq	%rax, (%rsp)
	movq	(%rsp), %rax
	addq	$16, %rsp
	.cfi_def_cfa_offset 8
	retq
.Lfunc_end113:
	.size	_ZN4core3mem8align_of17h5beb0207f74c96b9E, .Lfunc_end113-_ZN4core3mem8align_of17h5beb0207f74c96b9E
	.cfi_endproc

	.section	.text._ZN4core3mem8align_of17h6cbf56e216ba83fbE,"ax",@progbits
	.p2align	4, 0x90
	.type	_ZN4core3mem8align_of17h6cbf56e216ba83fbE,@function
_ZN4core3mem8align_of17h6cbf56e216ba83fbE:
	.cfi_startproc
	subq	$16, %rsp
	.cfi_def_cfa_offset 24
	movq	$1, 8(%rsp)
	movq	8(%rsp), %rax
	movq	%rax, (%rsp)
	movq	(%rsp), %rax
	addq	$16, %rsp
	.cfi_def_cfa_offset 8
	retq
.Lfunc_end114:
	.size	_ZN4core3mem8align_of17h6cbf56e216ba83fbE, .Lfunc_end114-_ZN4core3mem8align_of17h6cbf56e216ba83fbE
	.cfi_endproc

	.section	.text._ZN4core3num12NonZeroUsize13new_unchecked17h19f4445d3a7c12f2E,"ax",@progbits
	.p2align	4, 0x90
	.type	_ZN4core3num12NonZeroUsize13new_unchecked17h19f4445d3a7c12f2E,@function
_ZN4core3num12NonZeroUsize13new_unchecked17h19f4445d3a7c12f2E:
	.cfi_startproc
	pushq	%rax
	.cfi_def_cfa_offset 16
	movq	%rdi, (%rsp)
	movq	(%rsp), %rax
	popq	%rcx
	.cfi_def_cfa_offset 8
	retq
.Lfunc_end115:
	.size	_ZN4core3num12NonZeroUsize13new_unchecked17h19f4445d3a7c12f2E, .Lfunc_end115-_ZN4core3num12NonZeroUsize13new_unchecked17h19f4445d3a7c12f2E
	.cfi_endproc

	.section	.text._ZN4core3num12NonZeroUsize3get17h2d80b87b43cef12fE,"ax",@progbits
	.p2align	4, 0x90
	.type	_ZN4core3num12NonZeroUsize3get17h2d80b87b43cef12fE,@function
_ZN4core3num12NonZeroUsize3get17h2d80b87b43cef12fE:
	.cfi_startproc
	movq	%rdi, %rax
	retq
.Lfunc_end116:
	.size	_ZN4core3num12NonZeroUsize3get17h2d80b87b43cef12fE, .Lfunc_end116-_ZN4core3num12NonZeroUsize3get17h2d80b87b43cef12fE
	.cfi_endproc

	.section	".text._ZN4core3num23_$LT$impl$u20$usize$GT$11checked_add17hdbf569c01a5ee22dE","ax",@progbits
	.p2align	4, 0x90
	.type	_ZN4core3num23_$LT$impl$u20$usize$GT$11checked_add17hdbf569c01a5ee22dE,@function
_ZN4core3num23_$LT$impl$u20$usize$GT$11checked_add17hdbf569c01a5ee22dE:
	.cfi_startproc
	subq	$40, %rsp
	.cfi_def_cfa_offset 48
	callq	_ZN4core3num23_$LT$impl$u20$usize$GT$15overflowing_add17h9306279fe92d6266E
	movq	%rax, 16(%rsp)
	movb	%dl, 15(%rsp)
	movb	15(%rsp), %al
	testb	$1, %al
	jne	.LBB117_2
	jmp	.LBB117_3
.LBB117_2:
	movq	$0, 24(%rsp)
	jmp	.LBB117_4
.LBB117_3:
	movq	16(%rsp), %rax
	movq	%rax, 32(%rsp)
	movq	$1, 24(%rsp)
.LBB117_4:
	movq	24(%rsp), %rax
	movq	32(%rsp), %rdx
	addq	$40, %rsp
	.cfi_def_cfa_offset 8
	retq
.Lfunc_end117:
	.size	_ZN4core3num23_$LT$impl$u20$usize$GT$11checked_add17hdbf569c01a5ee22dE, .Lfunc_end117-_ZN4core3num23_$LT$impl$u20$usize$GT$11checked_add17hdbf569c01a5ee22dE
	.cfi_endproc

	.section	".text._ZN4core3num23_$LT$impl$u20$usize$GT$11checked_mul17h1cd8f220f78e9c78E","ax",@progbits
	.p2align	4, 0x90
	.type	_ZN4core3num23_$LT$impl$u20$usize$GT$11checked_mul17h1cd8f220f78e9c78E,@function
_ZN4core3num23_$LT$impl$u20$usize$GT$11checked_mul17h1cd8f220f78e9c78E:
	.cfi_startproc
	subq	$40, %rsp
	.cfi_def_cfa_offset 48
	callq	_ZN4core3num23_$LT$impl$u20$usize$GT$15overflowing_mul17h8ac138f7e0b8b97dE
	movq	%rax, 16(%rsp)
	movb	%dl, 15(%rsp)
	movb	15(%rsp), %al
	testb	$1, %al
	jne	.LBB118_2
	jmp	.LBB118_3
.LBB118_2:
	movq	$0, 24(%rsp)
	jmp	.LBB118_4
.LBB118_3:
	movq	16(%rsp), %rax
	movq	%rax, 32(%rsp)
	movq	$1, 24(%rsp)
.LBB118_4:
	movq	24(%rsp), %rax
	movq	32(%rsp), %rdx
	addq	$40, %rsp
	.cfi_def_cfa_offset 8
	retq
.Lfunc_end118:
	.size	_ZN4core3num23_$LT$impl$u20$usize$GT$11checked_mul17h1cd8f220f78e9c78E, .Lfunc_end118-_ZN4core3num23_$LT$impl$u20$usize$GT$11checked_mul17h1cd8f220f78e9c78E
	.cfi_endproc

	.section	".text._ZN4core3num23_$LT$impl$u20$usize$GT$12wrapping_add17h435f48606f59f870E","ax",@progbits
	.p2align	4, 0x90
	.type	_ZN4core3num23_$LT$impl$u20$usize$GT$12wrapping_add17h435f48606f59f870E,@function
_ZN4core3num23_$LT$impl$u20$usize$GT$12wrapping_add17h435f48606f59f870E:
	.cfi_startproc
	subq	$16, %rsp
	.cfi_def_cfa_offset 24
	addq	%rsi, %rdi
	movq	%rdi, 8(%rsp)
	movq	8(%rsp), %rax
	movq	%rax, (%rsp)
	movq	(%rsp), %rax
	addq	$16, %rsp
	.cfi_def_cfa_offset 8
	retq
.Lfunc_end119:
	.size	_ZN4core3num23_$LT$impl$u20$usize$GT$12wrapping_add17h435f48606f59f870E, .Lfunc_end119-_ZN4core3num23_$LT$impl$u20$usize$GT$12wrapping_add17h435f48606f59f870E
	.cfi_endproc

	.section	".text._ZN4core3num23_$LT$impl$u20$usize$GT$12wrapping_sub17hb395a5a57fe119c8E","ax",@progbits
	.p2align	4, 0x90
	.type	_ZN4core3num23_$LT$impl$u20$usize$GT$12wrapping_sub17hb395a5a57fe119c8E,@function
_ZN4core3num23_$LT$impl$u20$usize$GT$12wrapping_sub17hb395a5a57fe119c8E:
	.cfi_startproc
	subq	$16, %rsp
	.cfi_def_cfa_offset 24
	subq	%rsi, %rdi
	movq	%rdi, 8(%rsp)
	movq	8(%rsp), %rax
	movq	%rax, (%rsp)
	movq	(%rsp), %rax
	addq	$16, %rsp
	.cfi_def_cfa_offset 8
	retq
.Lfunc_end120:
	.size	_ZN4core3num23_$LT$impl$u20$usize$GT$12wrapping_sub17hb395a5a57fe119c8E, .Lfunc_end120-_ZN4core3num23_$LT$impl$u20$usize$GT$12wrapping_sub17hb395a5a57fe119c8E
	.cfi_endproc

	.section	".text._ZN4core3num23_$LT$impl$u20$usize$GT$15is_power_of_two17h33072312ce781d24E","ax",@progbits
	.p2align	4, 0x90
	.type	_ZN4core3num23_$LT$impl$u20$usize$GT$15is_power_of_two17h33072312ce781d24E,@function
_ZN4core3num23_$LT$impl$u20$usize$GT$15is_power_of_two17h33072312ce781d24E:
	.cfi_startproc
	subq	$24, %rsp
	.cfi_def_cfa_offset 32
	movq	%rdi, 8(%rsp)
	movl	$1, %esi
	callq	_ZN4core3num23_$LT$impl$u20$usize$GT$12wrapping_sub17hb395a5a57fe119c8E
	movq	%rax, (%rsp)
	jmp	.LBB121_4
.LBB121_1:
	movb	$0, 23(%rsp)
	jmp	.LBB121_3
.LBB121_2:
	movq	8(%rsp), %rax
	cmpq	$0, %rax
	sete	%cl
	xorb	$-1, %cl
	andb	$1, %cl
	movb	%cl, 23(%rsp)
.LBB121_3:
	movb	23(%rsp), %al
	andb	$1, %al
	movzbl	%al, %eax
	addq	$24, %rsp
	.cfi_def_cfa_offset 8
	retq
.LBB121_4:
	.cfi_def_cfa_offset 32
	movq	(%rsp), %rax
	movq	8(%rsp), %rcx
	andq	%rcx, %rax
	cmpq	$0, %rax
	je	.LBB121_2
	jmp	.LBB121_1
.Lfunc_end121:
	.size	_ZN4core3num23_$LT$impl$u20$usize$GT$15is_power_of_two17h33072312ce781d24E, .Lfunc_end121-_ZN4core3num23_$LT$impl$u20$usize$GT$15is_power_of_two17h33072312ce781d24E
	.cfi_endproc

	.section	".text._ZN4core3num23_$LT$impl$u20$usize$GT$15overflowing_add17h9306279fe92d6266E","ax",@progbits
	.p2align	4, 0x90
	.type	_ZN4core3num23_$LT$impl$u20$usize$GT$15overflowing_add17h9306279fe92d6266E,@function
_ZN4core3num23_$LT$impl$u20$usize$GT$15overflowing_add17h9306279fe92d6266E:
	.cfi_startproc
	subq	$48, %rsp
	.cfi_def_cfa_offset 56
	addq	%rsi, %rdi
	setb	%al
	andb	$1, %al
	movq	%rdi, 32(%rsp)
	movb	%al, 40(%rsp)
	movq	32(%rsp), %rsi
	movb	40(%rsp), %al
	movq	%rsi, 8(%rsp)
	movb	%al, 7(%rsp)
	movq	8(%rsp), %rax
	movq	%rax, 16(%rsp)
	movb	7(%rsp), %cl
	andb	$1, %cl
	movb	%cl, 24(%rsp)
	movq	16(%rsp), %rax
	movb	24(%rsp), %dl
	addq	$48, %rsp
	.cfi_def_cfa_offset 8
	retq
.Lfunc_end122:
	.size	_ZN4core3num23_$LT$impl$u20$usize$GT$15overflowing_add17h9306279fe92d6266E, .Lfunc_end122-_ZN4core3num23_$LT$impl$u20$usize$GT$15overflowing_add17h9306279fe92d6266E
	.cfi_endproc

	.section	".text._ZN4core3num23_$LT$impl$u20$usize$GT$15overflowing_mul17h8ac138f7e0b8b97dE","ax",@progbits
	.p2align	4, 0x90
	.type	_ZN4core3num23_$LT$impl$u20$usize$GT$15overflowing_mul17h8ac138f7e0b8b97dE,@function
_ZN4core3num23_$LT$impl$u20$usize$GT$15overflowing_mul17h8ac138f7e0b8b97dE:
	.cfi_startproc
	subq	$48, %rsp
	.cfi_def_cfa_offset 56
	movq	%rdi, %rax
	mulq	%rsi
	seto	%cl
	andb	$1, %cl
	movq	%rax, 32(%rsp)
	movb	%cl, 40(%rsp)
	movq	32(%rsp), %rax
	movb	40(%rsp), %cl
	movq	%rax, 8(%rsp)
	movb	%cl, 7(%rsp)
	movq	8(%rsp), %rax
	movq	%rax, 16(%rsp)
	movb	7(%rsp), %cl
	andb	$1, %cl
	movb	%cl, 24(%rsp)
	movq	16(%rsp), %rax
	movb	24(%rsp), %dl
	addq	$48, %rsp
	.cfi_def_cfa_offset 8
	retq
.Lfunc_end123:
	.size	_ZN4core3num23_$LT$impl$u20$usize$GT$15overflowing_mul17h8ac138f7e0b8b97dE, .Lfunc_end123-_ZN4core3num23_$LT$impl$u20$usize$GT$15overflowing_mul17h8ac138f7e0b8b97dE
	.cfi_endproc

	.section	.text._ZN4core3ops8function6FnOnce9call_once17hf12027137f536236E,"ax",@progbits
	.p2align	4, 0x90
	.type	_ZN4core3ops8function6FnOnce9call_once17hf12027137f536236E,@function
_ZN4core3ops8function6FnOnce9call_once17hf12027137f536236E:
.Lfunc_begin16:
	.cfi_startproc
	.cfi_personality 155, DW.ref.rust_eh_personality
	.cfi_lsda 27, .Lexception16
	subq	$40, %rsp
	.cfi_def_cfa_offset 48
	movq	%rdi, 8(%rsp)
.Ltmp121:
	leaq	8(%rsp), %rdi
	callq	_ZN3std2rt10lang_start28_$u7b$$u7b$closure$u7d$$u7d$17h313fde1018e21b47E
.Ltmp122:
	movl	%eax, 4(%rsp)
	jmp	.LBB124_1
.LBB124_1:
	jmp	.LBB124_2
.LBB124_2:
	movl	4(%rsp), %eax
	addq	$40, %rsp
	.cfi_def_cfa_offset 8
	retq
.LBB124_3:
	.cfi_def_cfa_offset 48
	jmp	.LBB124_4
.LBB124_4:
	movq	24(%rsp), %rdi
	callq	_Unwind_Resume@PLT
	ud2
.LBB124_5:
.Ltmp123:
	movl	%edx, %ecx
	movq	%rax, 24(%rsp)
	movl	%ecx, 32(%rsp)
	jmp	.LBB124_3
.Lfunc_end124:
	.size	_ZN4core3ops8function6FnOnce9call_once17hf12027137f536236E, .Lfunc_end124-_ZN4core3ops8function6FnOnce9call_once17hf12027137f536236E
	.cfi_endproc
	.section	.gcc_except_table,"a",@progbits
	.p2align	2
GCC_except_table124:
.Lexception16:
	.byte	255
	.byte	255
	.byte	1
	.uleb128 .Lcst_end16-.Lcst_begin16
.Lcst_begin16:
	.uleb128 .Ltmp121-.Lfunc_begin16
	.uleb128 .Ltmp122-.Ltmp121
	.uleb128 .Ltmp123-.Lfunc_begin16
	.byte	0
	.uleb128 .Ltmp122-.Lfunc_begin16
	.uleb128 .Lfunc_end124-.Ltmp122
	.byte	0
	.byte	0
.Lcst_end16:
	.p2align	2

	.section	".text._ZN4core3ops8function6FnOnce9call_once32_$u7b$$u7b$vtable.shim$u7d$$u7d$17h8e453f5954161bd1E","ax",@progbits
	.p2align	4, 0x90
	.type	_ZN4core3ops8function6FnOnce9call_once32_$u7b$$u7b$vtable.shim$u7d$$u7d$17h8e453f5954161bd1E,@function
_ZN4core3ops8function6FnOnce9call_once32_$u7b$$u7b$vtable.shim$u7d$$u7d$17h8e453f5954161bd1E:
	.cfi_startproc
	subq	$24, %rsp
	.cfi_def_cfa_offset 32
	movq	(%rdi), %rdi
	callq	_ZN4core3ops8function6FnOnce9call_once17hf12027137f536236E
	movl	%eax, 12(%rsp)
	movl	12(%rsp), %eax
	addq	$24, %rsp
	.cfi_def_cfa_offset 8
	retq
.Lfunc_end125:
	.size	_ZN4core3ops8function6FnOnce9call_once32_$u7b$$u7b$vtable.shim$u7d$$u7d$17h8e453f5954161bd1E, .Lfunc_end125-_ZN4core3ops8function6FnOnce9call_once32_$u7b$$u7b$vtable.shim$u7d$$u7d$17h8e453f5954161bd1E
	.cfi_endproc

	.section	.text._ZN4core3ptr18real_drop_in_place17h1319bbdd5a6a5ba5E,"ax",@progbits
	.p2align	4, 0x90
	.type	_ZN4core3ptr18real_drop_in_place17h1319bbdd5a6a5ba5E,@function
_ZN4core3ptr18real_drop_in_place17h1319bbdd5a6a5ba5E:
	.cfi_startproc
	pushq	%rax
	.cfi_def_cfa_offset 16
	callq	_ZN82_$LT$alloc..raw_vec..RawVec$LT$T$C$$u20$A$GT$$u20$as$u20$core..ops..drop..Drop$GT$4drop17h9ae1479b722b59efE
	popq	%rax
	.cfi_def_cfa_offset 8
	retq
.Lfunc_end126:
	.size	_ZN4core3ptr18real_drop_in_place17h1319bbdd5a6a5ba5E, .Lfunc_end126-_ZN4core3ptr18real_drop_in_place17h1319bbdd5a6a5ba5E
	.cfi_endproc

	.section	.text._ZN4core3ptr18real_drop_in_place17h1c1f4caa66a1eb8bE,"ax",@progbits
	.p2align	4, 0x90
	.type	_ZN4core3ptr18real_drop_in_place17h1c1f4caa66a1eb8bE,@function
_ZN4core3ptr18real_drop_in_place17h1c1f4caa66a1eb8bE:
	.cfi_startproc
	pushq	%rax
	.cfi_def_cfa_offset 16
	callq	_ZN80_$LT$alloc..vec..SetLenOnDrop$LT$$u27$a$GT$$u20$as$u20$core..ops..drop..Drop$GT$4drop17h9413ac9c348302c4E
	popq	%rax
	.cfi_def_cfa_offset 8
	retq
.Lfunc_end127:
	.size	_ZN4core3ptr18real_drop_in_place17h1c1f4caa66a1eb8bE, .Lfunc_end127-_ZN4core3ptr18real_drop_in_place17h1c1f4caa66a1eb8bE
	.cfi_endproc

	.section	.text._ZN4core3ptr18real_drop_in_place17h2b918cddc6da85b8E,"ax",@progbits
	.p2align	4, 0x90
	.type	_ZN4core3ptr18real_drop_in_place17h2b918cddc6da85b8E,@function
_ZN4core3ptr18real_drop_in_place17h2b918cddc6da85b8E:
	.cfi_startproc
	pushq	%rax
	.cfi_def_cfa_offset 16
	movq	%rdi, (%rsp)
	popq	%rax
	.cfi_def_cfa_offset 8
	retq
.Lfunc_end128:
	.size	_ZN4core3ptr18real_drop_in_place17h2b918cddc6da85b8E, .Lfunc_end128-_ZN4core3ptr18real_drop_in_place17h2b918cddc6da85b8E
	.cfi_endproc

	.section	.text._ZN4core3ptr18real_drop_in_place17h39f3b57adfc1d2ebE,"ax",@progbits
	.p2align	4, 0x90
	.type	_ZN4core3ptr18real_drop_in_place17h39f3b57adfc1d2ebE,@function
_ZN4core3ptr18real_drop_in_place17h39f3b57adfc1d2ebE:
	.cfi_startproc
	subq	$24, %rsp
	.cfi_def_cfa_offset 32
	movq	%rdi, (%rsp)
	jmp	.LBB129_2
.LBB129_1:
	addq	$24, %rsp
	.cfi_def_cfa_offset 8
	retq
.LBB129_2:
	.cfi_def_cfa_offset 32
	movq	(%rsp), %rax
	movq	(%rax), %rdi
	movq	8(%rax), %rsi
	callq	_ZN5alloc5alloc8box_free17h2666cf86d3003c8bE
	jmp	.LBB129_1
.Lfunc_end129:
	.size	_ZN4core3ptr18real_drop_in_place17h39f3b57adfc1d2ebE, .Lfunc_end129-_ZN4core3ptr18real_drop_in_place17h39f3b57adfc1d2ebE
	.cfi_endproc

	.section	.text._ZN4core3ptr18real_drop_in_place17h6b4c5f711e5356baE,"ax",@progbits
	.p2align	4, 0x90
	.type	_ZN4core3ptr18real_drop_in_place17h6b4c5f711e5356baE,@function
_ZN4core3ptr18real_drop_in_place17h6b4c5f711e5356baE:
	.cfi_startproc
	pushq	%rax
	.cfi_def_cfa_offset 16
	movq	%rdi, (%rsp)
	popq	%rax
	.cfi_def_cfa_offset 8
	retq
.Lfunc_end130:
	.size	_ZN4core3ptr18real_drop_in_place17h6b4c5f711e5356baE, .Lfunc_end130-_ZN4core3ptr18real_drop_in_place17h6b4c5f711e5356baE
	.cfi_endproc

	.section	.text._ZN4core3ptr18real_drop_in_place17h9f14959f5214e5b9E,"ax",@progbits
	.p2align	4, 0x90
	.type	_ZN4core3ptr18real_drop_in_place17h9f14959f5214e5b9E,@function
_ZN4core3ptr18real_drop_in_place17h9f14959f5214e5b9E:
.Lfunc_begin17:
	.cfi_startproc
	.cfi_personality 155, DW.ref.rust_eh_personality
	.cfi_lsda 27, .Lexception17
	subq	$24, %rsp
	.cfi_def_cfa_offset 32
.Ltmp124:
	movq	%rdi, (%rsp)
	callq	_ZN66_$LT$alloc..vec..Vec$LT$T$GT$$u20$as$u20$core..ops..drop..Drop$GT$4drop17hd9c00634585dd7aaE
.Ltmp125:
	jmp	.LBB131_4
.LBB131_1:
	movq	8(%rsp), %rdi
	callq	_Unwind_Resume@PLT
	ud2
.LBB131_2:
	addq	$24, %rsp
	.cfi_def_cfa_offset 8
	retq
.LBB131_3:
	.cfi_def_cfa_offset 32
	movq	(%rsp), %rax
	movq	%rax, %rdi
	callq	_ZN4core3ptr18real_drop_in_place17haa93e5039f1e02f5E
	jmp	.LBB131_1
.LBB131_4:
	movq	(%rsp), %rax
	movq	%rax, %rdi
	callq	_ZN4core3ptr18real_drop_in_place17haa93e5039f1e02f5E
	jmp	.LBB131_2
.LBB131_5:
.Ltmp126:
	movl	%edx, %ecx
	movq	%rax, 8(%rsp)
	movl	%ecx, 16(%rsp)
	jmp	.LBB131_3
.Lfunc_end131:
	.size	_ZN4core3ptr18real_drop_in_place17h9f14959f5214e5b9E, .Lfunc_end131-_ZN4core3ptr18real_drop_in_place17h9f14959f5214e5b9E
	.cfi_endproc
	.section	.gcc_except_table,"a",@progbits
	.p2align	2
GCC_except_table131:
.Lexception17:
	.byte	255
	.byte	255
	.byte	1
	.uleb128 .Lcst_end17-.Lcst_begin17
.Lcst_begin17:
	.uleb128 .Ltmp124-.Lfunc_begin17
	.uleb128 .Ltmp125-.Ltmp124
	.uleb128 .Ltmp126-.Lfunc_begin17
	.byte	0
	.uleb128 .Ltmp125-.Lfunc_begin17
	.uleb128 .Lfunc_end131-.Ltmp125
	.byte	0
	.byte	0
.Lcst_end17:
	.p2align	2

	.section	.text._ZN4core3ptr18real_drop_in_place17h9f5aa9677b18666cE,"ax",@progbits
	.p2align	4, 0x90
	.type	_ZN4core3ptr18real_drop_in_place17h9f5aa9677b18666cE,@function
_ZN4core3ptr18real_drop_in_place17h9f5aa9677b18666cE:
.Lfunc_begin18:
	.cfi_startproc
	.cfi_personality 155, DW.ref.rust_eh_personality
	.cfi_lsda 27, .Lexception18
	subq	$24, %rsp
	.cfi_def_cfa_offset 32
	movq	(%rdi), %rax
	movq	8(%rdi), %rcx
	movq	(%rcx), %rcx
.Ltmp127:
	movq	%rdi, (%rsp)
	movq	%rax, %rdi
	callq	*%rcx
.Ltmp128:
	jmp	.LBB132_3
.LBB132_1:
	addq	$24, %rsp
	.cfi_def_cfa_offset 8
	retq
.LBB132_2:
	.cfi_def_cfa_offset 32
	movq	8(%rsp), %rdi
	callq	_Unwind_Resume@PLT
	ud2
.LBB132_3:
	movq	(%rsp), %rax
	movq	(%rax), %rdi
	movq	8(%rax), %rsi
	callq	_ZN5alloc5alloc8box_free17hb9ad28e6a8c93cf6E
	jmp	.LBB132_1
.LBB132_4:
	movq	(%rsp), %rax
	movq	(%rax), %rdi
	movq	8(%rax), %rsi
	callq	_ZN5alloc5alloc8box_free17hb9ad28e6a8c93cf6E
	jmp	.LBB132_2
.LBB132_5:
.Ltmp129:
	movl	%edx, %ecx
	movq	%rax, 8(%rsp)
	movl	%ecx, 16(%rsp)
	jmp	.LBB132_4
.Lfunc_end132:
	.size	_ZN4core3ptr18real_drop_in_place17h9f5aa9677b18666cE, .Lfunc_end132-_ZN4core3ptr18real_drop_in_place17h9f5aa9677b18666cE
	.cfi_endproc
	.section	.gcc_except_table,"a",@progbits
	.p2align	2
GCC_except_table132:
.Lexception18:
	.byte	255
	.byte	255
	.byte	1
	.uleb128 .Lcst_end18-.Lcst_begin18
.Lcst_begin18:
	.uleb128 .Ltmp127-.Lfunc_begin18
	.uleb128 .Ltmp128-.Ltmp127
	.uleb128 .Ltmp129-.Lfunc_begin18
	.byte	0
	.uleb128 .Ltmp128-.Lfunc_begin18
	.uleb128 .Lfunc_end132-.Ltmp128
	.byte	0
	.byte	0
.Lcst_end18:
	.p2align	2

	.section	.text._ZN4core3ptr18real_drop_in_place17ha8521c9f1c22101eE,"ax",@progbits
	.p2align	4, 0x90
	.type	_ZN4core3ptr18real_drop_in_place17ha8521c9f1c22101eE,@function
_ZN4core3ptr18real_drop_in_place17ha8521c9f1c22101eE:
	.cfi_startproc
	pushq	%rax
	.cfi_def_cfa_offset 16
	callq	*(%rsi)
	popq	%rax
	.cfi_def_cfa_offset 8
	retq
.Lfunc_end133:
	.size	_ZN4core3ptr18real_drop_in_place17ha8521c9f1c22101eE, .Lfunc_end133-_ZN4core3ptr18real_drop_in_place17ha8521c9f1c22101eE
	.cfi_endproc

	.section	.text._ZN4core3ptr18real_drop_in_place17haa93e5039f1e02f5E,"ax",@progbits
	.p2align	4, 0x90
	.type	_ZN4core3ptr18real_drop_in_place17haa93e5039f1e02f5E,@function
_ZN4core3ptr18real_drop_in_place17haa93e5039f1e02f5E:
	.cfi_startproc
	pushq	%rax
	.cfi_def_cfa_offset 16
	callq	_ZN82_$LT$alloc..raw_vec..RawVec$LT$T$C$$u20$A$GT$$u20$as$u20$core..ops..drop..Drop$GT$4drop17h64225a849c86dc08E
	popq	%rax
	.cfi_def_cfa_offset 8
	retq
.Lfunc_end134:
	.size	_ZN4core3ptr18real_drop_in_place17haa93e5039f1e02f5E, .Lfunc_end134-_ZN4core3ptr18real_drop_in_place17haa93e5039f1e02f5E
	.cfi_endproc

	.section	.text._ZN4core3ptr18real_drop_in_place17hcdc2b437907d2fd8E,"ax",@progbits
	.p2align	4, 0x90
	.type	_ZN4core3ptr18real_drop_in_place17hcdc2b437907d2fd8E,@function
_ZN4core3ptr18real_drop_in_place17hcdc2b437907d2fd8E:
	.cfi_startproc
	pushq	%rax
	.cfi_def_cfa_offset 16
	movq	%rdi, (%rsp)
	popq	%rax
	.cfi_def_cfa_offset 8
	retq
.Lfunc_end135:
	.size	_ZN4core3ptr18real_drop_in_place17hcdc2b437907d2fd8E, .Lfunc_end135-_ZN4core3ptr18real_drop_in_place17hcdc2b437907d2fd8E
	.cfi_endproc

	.section	.text._ZN4core3ptr18real_drop_in_place17hd91b27900be6b3c5E,"ax",@progbits
	.p2align	4, 0x90
	.type	_ZN4core3ptr18real_drop_in_place17hd91b27900be6b3c5E,@function
_ZN4core3ptr18real_drop_in_place17hd91b27900be6b3c5E:
	.cfi_startproc
	pushq	%rax
	.cfi_def_cfa_offset 16
	movq	%rdi, (%rsp)
	popq	%rax
	.cfi_def_cfa_offset 8
	retq
.Lfunc_end136:
	.size	_ZN4core3ptr18real_drop_in_place17hd91b27900be6b3c5E, .Lfunc_end136-_ZN4core3ptr18real_drop_in_place17hd91b27900be6b3c5E
	.cfi_endproc

	.section	.text._ZN4core3ptr18real_drop_in_place17hed129dd84b2fe294E,"ax",@progbits
	.p2align	4, 0x90
	.type	_ZN4core3ptr18real_drop_in_place17hed129dd84b2fe294E,@function
_ZN4core3ptr18real_drop_in_place17hed129dd84b2fe294E:
	.cfi_startproc
	pushq	%rax
	.cfi_def_cfa_offset 16
	movq	%rdi, (%rsp)
	popq	%rax
	.cfi_def_cfa_offset 8
	retq
.Lfunc_end137:
	.size	_ZN4core3ptr18real_drop_in_place17hed129dd84b2fe294E, .Lfunc_end137-_ZN4core3ptr18real_drop_in_place17hed129dd84b2fe294E
	.cfi_endproc

	.section	.text._ZN4core3ptr18real_drop_in_place17hef6b8136c0ddd7edE,"ax",@progbits
	.p2align	4, 0x90
	.type	_ZN4core3ptr18real_drop_in_place17hef6b8136c0ddd7edE,@function
_ZN4core3ptr18real_drop_in_place17hef6b8136c0ddd7edE:
.Lfunc_begin19:
	.cfi_startproc
	.cfi_personality 155, DW.ref.rust_eh_personality
	.cfi_lsda 27, .Lexception19
	subq	$24, %rsp
	.cfi_def_cfa_offset 32
.Ltmp130:
	movq	%rdi, (%rsp)
	callq	_ZN66_$LT$alloc..vec..Vec$LT$T$GT$$u20$as$u20$core..ops..drop..Drop$GT$4drop17hd109386219409cd5E
.Ltmp131:
	jmp	.LBB138_4
.LBB138_1:
	movq	8(%rsp), %rdi
	callq	_Unwind_Resume@PLT
	ud2
.LBB138_2:
	addq	$24, %rsp
	.cfi_def_cfa_offset 8
	retq
.LBB138_3:
	.cfi_def_cfa_offset 32
	movq	(%rsp), %rax
	movq	%rax, %rdi
	callq	_ZN4core3ptr18real_drop_in_place17h1319bbdd5a6a5ba5E
	jmp	.LBB138_1
.LBB138_4:
	movq	(%rsp), %rax
	movq	%rax, %rdi
	callq	_ZN4core3ptr18real_drop_in_place17h1319bbdd5a6a5ba5E
	jmp	.LBB138_2
.LBB138_5:
.Ltmp132:
	movl	%edx, %ecx
	movq	%rax, 8(%rsp)
	movl	%ecx, 16(%rsp)
	jmp	.LBB138_3
.Lfunc_end138:
	.size	_ZN4core3ptr18real_drop_in_place17hef6b8136c0ddd7edE, .Lfunc_end138-_ZN4core3ptr18real_drop_in_place17hef6b8136c0ddd7edE
	.cfi_endproc
	.section	.gcc_except_table,"a",@progbits
	.p2align	2
GCC_except_table138:
.Lexception19:
	.byte	255
	.byte	255
	.byte	1
	.uleb128 .Lcst_end19-.Lcst_begin19
.Lcst_begin19:
	.uleb128 .Ltmp130-.Lfunc_begin19
	.uleb128 .Ltmp131-.Ltmp130
	.uleb128 .Ltmp132-.Lfunc_begin19
	.byte	0
	.uleb128 .Ltmp131-.Lfunc_begin19
	.uleb128 .Lfunc_end138-.Ltmp131
	.byte	0
	.byte	0
.Lcst_end19:
	.p2align	2

	.section	.text._ZN4core3ptr18real_drop_in_place17hfe38eae06256c6c7E,"ax",@progbits
	.p2align	4, 0x90
	.type	_ZN4core3ptr18real_drop_in_place17hfe38eae06256c6c7E,@function
_ZN4core3ptr18real_drop_in_place17hfe38eae06256c6c7E:
	.cfi_startproc
	pushq	%rax
	.cfi_def_cfa_offset 16
	movq	%rdi, (%rsp)
	popq	%rax
	.cfi_def_cfa_offset 8
	retq
.Lfunc_end139:
	.size	_ZN4core3ptr18real_drop_in_place17hfe38eae06256c6c7E, .Lfunc_end139-_ZN4core3ptr18real_drop_in_place17hfe38eae06256c6c7E
	.cfi_endproc

	.section	.text._ZN4core3ptr19swap_nonoverlapping17h35a9bc76f81476baE,"ax",@progbits
	.p2align	4, 0x90
	.type	_ZN4core3ptr19swap_nonoverlapping17h35a9bc76f81476baE,@function
_ZN4core3ptr19swap_nonoverlapping17h35a9bc76f81476baE:
	.cfi_startproc
	subq	$40, %rsp
	.cfi_def_cfa_offset 48
	movq	%rdx, 32(%rsp)
	movq	%rdi, 24(%rsp)
	movq	%rsi, 16(%rsp)
	callq	_ZN4core3mem7size_of17hfc045ff1e1a57948E
	movq	%rax, 8(%rsp)
	movq	8(%rsp), %rax
	movq	32(%rsp), %rcx
	imulq	%rcx, %rax
	movq	24(%rsp), %rdi
	movq	16(%rsp), %rsi
	movq	%rax, %rdx
	callq	_ZN4core3ptr25swap_nonoverlapping_bytes17h0f1302467e7165f6E
	addq	$40, %rsp
	.cfi_def_cfa_offset 8
	retq
.Lfunc_end140:
	.size	_ZN4core3ptr19swap_nonoverlapping17h35a9bc76f81476baE, .Lfunc_end140-_ZN4core3ptr19swap_nonoverlapping17h35a9bc76f81476baE
	.cfi_endproc

	.section	.text._ZN4core3ptr19swap_nonoverlapping17h8da000ddd7191acbE,"ax",@progbits
	.p2align	4, 0x90
	.type	_ZN4core3ptr19swap_nonoverlapping17h8da000ddd7191acbE,@function
_ZN4core3ptr19swap_nonoverlapping17h8da000ddd7191acbE:
	.cfi_startproc
	subq	$40, %rsp
	.cfi_def_cfa_offset 48
	movq	%rdx, 32(%rsp)
	movq	%rdi, 24(%rsp)
	movq	%rsi, 16(%rsp)
	callq	_ZN4core3mem7size_of17h82455ecdfec7abc1E
	movq	%rax, 8(%rsp)
	movq	8(%rsp), %rax
	movq	32(%rsp), %rcx
	imulq	%rcx, %rax
	movq	24(%rsp), %rdi
	movq	16(%rsp), %rsi
	movq	%rax, %rdx
	callq	_ZN4core3ptr25swap_nonoverlapping_bytes17h0f1302467e7165f6E
	addq	$40, %rsp
	.cfi_def_cfa_offset 8
	retq
.Lfunc_end141:
	.size	_ZN4core3ptr19swap_nonoverlapping17h8da000ddd7191acbE, .Lfunc_end141-_ZN4core3ptr19swap_nonoverlapping17h8da000ddd7191acbE
	.cfi_endproc

	.section	.text._ZN4core3ptr23swap_nonoverlapping_one17heca6ec9be78eb9edE,"ax",@progbits
	.p2align	4, 0x90
	.type	_ZN4core3ptr23swap_nonoverlapping_one17heca6ec9be78eb9edE,@function
_ZN4core3ptr23swap_nonoverlapping_one17heca6ec9be78eb9edE:
.Lfunc_begin20:
	.cfi_startproc
	.cfi_personality 155, DW.ref.rust_eh_personality
	.cfi_lsda 27, .Lexception20
	subq	$56, %rsp
	.cfi_def_cfa_offset 64
	movb	$0, 39(%rsp)
	movq	%rdi, 24(%rsp)
	movq	%rsi, 16(%rsp)
	callq	_ZN4core3mem7size_of17h82455ecdfec7abc1E
	movq	%rax, 8(%rsp)
	jmp	.LBB142_2
.LBB142_1:
	movq	40(%rsp), %rdi
	callq	_Unwind_Resume@PLT
	ud2
.LBB142_2:
	movq	8(%rsp), %rax
	cmpq	$32, %rax
	jae	.LBB142_4
	movb	$1, 39(%rsp)
	movq	24(%rsp), %rdi
	callq	_ZN4core3ptr4read17hb9e0db5c4ae5c683E
	movq	%rax, (%rsp)
	jmp	.LBB142_5
.LBB142_4:
	movq	24(%rsp), %rdi
	movq	16(%rsp), %rsi
	movl	$1, %edx
	callq	_ZN4core3ptr19swap_nonoverlapping17h8da000ddd7191acbE
	jmp	.LBB142_8
.LBB142_5:
	movq	16(%rsp), %rax
	movq	(%rax), %rcx
	movq	24(%rsp), %rdx
	movq	%rcx, (%rdx)
	movb	$0, 39(%rsp)
.Ltmp133:
	movq	16(%rsp), %rdi
	movq	(%rsp), %rsi
	callq	_ZN4core3ptr5write17h4ecf4d6b7a450033E
.Ltmp134:
	jmp	.LBB142_7
.LBB142_7:
	movb	$0, 39(%rsp)
	jmp	.LBB142_9
.LBB142_8:
	jmp	.LBB142_9
.LBB142_9:
	addq	$56, %rsp
	.cfi_def_cfa_offset 8
	retq
.LBB142_10:
	.cfi_def_cfa_offset 64
	movb	$0, 39(%rsp)
	jmp	.LBB142_1
.LBB142_11:
	testb	$1, 39(%rsp)
	jne	.LBB142_10
	jmp	.LBB142_1
.LBB142_12:
.Ltmp135:
	movl	%edx, %ecx
	movq	%rax, 40(%rsp)
	movl	%ecx, 48(%rsp)
	jmp	.LBB142_11
.Lfunc_end142:
	.size	_ZN4core3ptr23swap_nonoverlapping_one17heca6ec9be78eb9edE, .Lfunc_end142-_ZN4core3ptr23swap_nonoverlapping_one17heca6ec9be78eb9edE
	.cfi_endproc
	.section	.gcc_except_table,"a",@progbits
	.p2align	2
GCC_except_table142:
.Lexception20:
	.byte	255
	.byte	255
	.byte	1
	.uleb128 .Lcst_end20-.Lcst_begin20
.Lcst_begin20:
	.uleb128 .Lfunc_begin20-.Lfunc_begin20
	.uleb128 .Ltmp133-.Lfunc_begin20
	.byte	0
	.byte	0
	.uleb128 .Ltmp133-.Lfunc_begin20
	.uleb128 .Ltmp134-.Ltmp133
	.uleb128 .Ltmp135-.Lfunc_begin20
	.byte	0
.Lcst_end20:
	.p2align	2

	.section	.text._ZN4core3ptr23swap_nonoverlapping_one17hf95e4cdceb1cb654E,"ax",@progbits
	.p2align	4, 0x90
	.type	_ZN4core3ptr23swap_nonoverlapping_one17hf95e4cdceb1cb654E,@function
_ZN4core3ptr23swap_nonoverlapping_one17hf95e4cdceb1cb654E:
.Lfunc_begin21:
	.cfi_startproc
	.cfi_personality 155, DW.ref.rust_eh_personality
	.cfi_lsda 27, .Lexception21
	subq	$72, %rsp
	.cfi_def_cfa_offset 80
	movb	$0, 55(%rsp)
	movq	%rdi, 40(%rsp)
	movq	%rsi, 32(%rsp)
	callq	_ZN4core3mem7size_of17hfc045ff1e1a57948E
	movq	%rax, 24(%rsp)
	jmp	.LBB143_2
.LBB143_1:
	movq	56(%rsp), %rdi
	callq	_Unwind_Resume@PLT
	ud2
.LBB143_2:
	movq	24(%rsp), %rax
	cmpq	$32, %rax
	jae	.LBB143_4
	movb	$1, 55(%rsp)
	movq	40(%rsp), %rdi
	callq	_ZN4core3ptr4read17hfaadbf7ff407e75eE
	movq	%rax, 16(%rsp)
	movq	%rdx, 8(%rsp)
	jmp	.LBB143_5
.LBB143_4:
	movq	40(%rsp), %rdi
	movq	32(%rsp), %rsi
	movl	$1, %edx
	callq	_ZN4core3ptr19swap_nonoverlapping17h35a9bc76f81476baE
	jmp	.LBB143_8
.LBB143_5:
	movq	32(%rsp), %rax
	movq	(%rax), %rcx
	movq	40(%rsp), %rdx
	movq	%rcx, (%rdx)
	movq	8(%rax), %rcx
	movq	%rcx, 8(%rdx)
	movb	$0, 55(%rsp)
.Ltmp136:
	movq	32(%rsp), %rdi
	movq	16(%rsp), %rsi
	movq	8(%rsp), %rdx
	callq	_ZN4core3ptr5write17h048d5a3d1679a292E
.Ltmp137:
	jmp	.LBB143_7
.LBB143_7:
	movb	$0, 55(%rsp)
	jmp	.LBB143_9
.LBB143_8:
	jmp	.LBB143_9
.LBB143_9:
	addq	$72, %rsp
	.cfi_def_cfa_offset 8
	retq
.LBB143_10:
	.cfi_def_cfa_offset 80
	movb	$0, 55(%rsp)
	jmp	.LBB143_1
.LBB143_11:
	testb	$1, 55(%rsp)
	jne	.LBB143_10
	jmp	.LBB143_1
.LBB143_12:
.Ltmp138:
	movl	%edx, %ecx
	movq	%rax, 56(%rsp)
	movl	%ecx, 64(%rsp)
	jmp	.LBB143_11
.Lfunc_end143:
	.size	_ZN4core3ptr23swap_nonoverlapping_one17hf95e4cdceb1cb654E, .Lfunc_end143-_ZN4core3ptr23swap_nonoverlapping_one17hf95e4cdceb1cb654E
	.cfi_endproc
	.section	.gcc_except_table,"a",@progbits
	.p2align	2
GCC_except_table143:
.Lexception21:
	.byte	255
	.byte	255
	.byte	1
	.uleb128 .Lcst_end21-.Lcst_begin21
.Lcst_begin21:
	.uleb128 .Lfunc_begin21-.Lfunc_begin21
	.uleb128 .Ltmp136-.Lfunc_begin21
	.byte	0
	.byte	0
	.uleb128 .Ltmp136-.Lfunc_begin21
	.uleb128 .Ltmp137-.Ltmp136
	.uleb128 .Ltmp138-.Lfunc_begin21
	.byte	0
.Lcst_end21:
	.p2align	2

	.section	.text._ZN4core3ptr25swap_nonoverlapping_bytes17h0f1302467e7165f6E,"ax",@progbits
	.p2align	4, 0x90
	.type	_ZN4core3ptr25swap_nonoverlapping_bytes17h0f1302467e7165f6E,@function
_ZN4core3ptr25swap_nonoverlapping_bytes17h0f1302467e7165f6E:
	.cfi_startproc
	pushq	%rbp
	.cfi_def_cfa_offset 16
	.cfi_offset %rbp, -16
	movq	%rsp, %rbp
	.cfi_def_cfa_register %rbp
	andq	$-32, %rsp
	subq	$224, %rsp
	movq	%rdi, 112(%rsp)
	movq	%rsi, 104(%rsp)
	movq	%rdx, 96(%rsp)
	callq	_ZN4core3mem7size_of17h9ba6aaedf169be5bE
	movq	%rax, 88(%rsp)
	movq	$0, 120(%rsp)
.LBB144_2:
	movq	88(%rsp), %rax
	addq	120(%rsp), %rax
	movq	96(%rsp), %rcx
	cmpq	%rcx, %rax
	jbe	.LBB144_4
	movq	96(%rsp), %rax
	cmpq	%rax, 120(%rsp)
	jb	.LBB144_12
	jmp	.LBB144_20
.LBB144_4:
	jmp	.LBB144_6
.LBB144_6:
	leaq	128(%rsp), %rax
	movq	120(%rsp), %rsi
	movq	112(%rsp), %rdi
	movq	%rax, 80(%rsp)
	callq	_ZN4core3ptr31_$LT$impl$u20$$BP$mut$u20$T$GT$3add17h2ea0f741817672a1E
	movq	%rax, 72(%rsp)
	movq	120(%rsp), %rsi
	movq	104(%rsp), %rdi
	callq	_ZN4core3ptr31_$LT$impl$u20$$BP$mut$u20$T$GT$3add17h2ea0f741817672a1E
	movq	%rax, 64(%rsp)
	movq	88(%rsp), %rax
	shlq	$0, %rax
	movq	80(%rsp), %rdi
	movq	72(%rsp), %rsi
	movq	%rax, %rdx
	callq	memcpy@PLT
	movq	88(%rsp), %rax
	shlq	$0, %rax
	movq	72(%rsp), %rdi
	movq	64(%rsp), %rsi
	movq	%rax, %rdx
	callq	memcpy@PLT
	movq	88(%rsp), %rax
	shlq	$0, %rax
	movq	64(%rsp), %rdi
	movq	80(%rsp), %rsi
	movq	%rax, %rdx
	callq	memcpy@PLT
	movq	88(%rsp), %rax
	addq	120(%rsp), %rax
	movq	%rax, 120(%rsp)
	jmp	.LBB144_2
.LBB144_12:
	movq	96(%rsp), %rax
	subq	120(%rsp), %rax
	leaq	176(%rsp), %rcx
	movq	%rax, 56(%rsp)
	movq	%rcx, 48(%rsp)
	movq	48(%rsp), %rax
	movq	120(%rsp), %rsi
	movq	112(%rsp), %rdi
	movq	%rax, 40(%rsp)
	callq	_ZN4core3ptr31_$LT$impl$u20$$BP$mut$u20$T$GT$3add17h2ea0f741817672a1E
	movq	%rax, 32(%rsp)
	movq	120(%rsp), %rsi
	movq	104(%rsp), %rdi
	callq	_ZN4core3ptr31_$LT$impl$u20$$BP$mut$u20$T$GT$3add17h2ea0f741817672a1E
	movq	%rax, 24(%rsp)
	movq	56(%rsp), %rax
	shlq	$0, %rax
	movq	40(%rsp), %rdi
	movq	32(%rsp), %rsi
	movq	%rax, %rdx
	callq	memcpy@PLT
	movq	56(%rsp), %rax
	shlq	$0, %rax
	movq	32(%rsp), %rdi
	movq	24(%rsp), %rsi
	movq	%rax, %rdx
	callq	memcpy@PLT
	movq	56(%rsp), %rax
	shlq	$0, %rax
	movq	24(%rsp), %rdi
	movq	40(%rsp), %rsi
	movq	%rax, %rdx
	callq	memcpy@PLT
	jmp	.LBB144_20
.LBB144_20:
	movq	%rbp, %rsp
	popq	%rbp
	.cfi_def_cfa %rsp, 8
	retq
.Lfunc_end144:
	.size	_ZN4core3ptr25swap_nonoverlapping_bytes17h0f1302467e7165f6E, .Lfunc_end144-_ZN4core3ptr25swap_nonoverlapping_bytes17h0f1302467e7165f6E
	.cfi_endproc

	.section	".text._ZN4core3ptr31_$LT$impl$u20$$BP$mut$u20$T$GT$3add17h2ea0f741817672a1E","ax",@progbits
	.p2align	4, 0x90
	.type	_ZN4core3ptr31_$LT$impl$u20$$BP$mut$u20$T$GT$3add17h2ea0f741817672a1E,@function
_ZN4core3ptr31_$LT$impl$u20$$BP$mut$u20$T$GT$3add17h2ea0f741817672a1E:
	.cfi_startproc
	pushq	%rax
	.cfi_def_cfa_offset 16
	callq	_ZN4core3ptr31_$LT$impl$u20$$BP$mut$u20$T$GT$6offset17hd5e96c3462f9ac0fE
	movq	%rax, (%rsp)
	movq	(%rsp), %rax
	popq	%rcx
	.cfi_def_cfa_offset 8
	retq
.Lfunc_end145:
	.size	_ZN4core3ptr31_$LT$impl$u20$$BP$mut$u20$T$GT$3add17h2ea0f741817672a1E, .Lfunc_end145-_ZN4core3ptr31_$LT$impl$u20$$BP$mut$u20$T$GT$3add17h2ea0f741817672a1E
	.cfi_endproc

	.section	".text._ZN4core3ptr31_$LT$impl$u20$$BP$mut$u20$T$GT$3add17h41920675da3962fdE","ax",@progbits
	.p2align	4, 0x90
	.type	_ZN4core3ptr31_$LT$impl$u20$$BP$mut$u20$T$GT$3add17h41920675da3962fdE,@function
_ZN4core3ptr31_$LT$impl$u20$$BP$mut$u20$T$GT$3add17h41920675da3962fdE:
	.cfi_startproc
	pushq	%rax
	.cfi_def_cfa_offset 16
	callq	_ZN4core3ptr31_$LT$impl$u20$$BP$mut$u20$T$GT$6offset17h32003c3fe9c89032E
	movq	%rax, (%rsp)
	movq	(%rsp), %rax
	popq	%rcx
	.cfi_def_cfa_offset 8
	retq
.Lfunc_end146:
	.size	_ZN4core3ptr31_$LT$impl$u20$$BP$mut$u20$T$GT$3add17h41920675da3962fdE, .Lfunc_end146-_ZN4core3ptr31_$LT$impl$u20$$BP$mut$u20$T$GT$3add17h41920675da3962fdE
	.cfi_endproc

	.section	".text._ZN4core3ptr31_$LT$impl$u20$$BP$mut$u20$T$GT$3add17hda59804c831a061bE","ax",@progbits
	.p2align	4, 0x90
	.type	_ZN4core3ptr31_$LT$impl$u20$$BP$mut$u20$T$GT$3add17hda59804c831a061bE,@function
_ZN4core3ptr31_$LT$impl$u20$$BP$mut$u20$T$GT$3add17hda59804c831a061bE:
	.cfi_startproc
	pushq	%rax
	.cfi_def_cfa_offset 16
	callq	_ZN4core3ptr31_$LT$impl$u20$$BP$mut$u20$T$GT$6offset17h262d0988c0fa6904E
	movq	%rax, (%rsp)
	movq	(%rsp), %rax
	popq	%rcx
	.cfi_def_cfa_offset 8
	retq
.Lfunc_end147:
	.size	_ZN4core3ptr31_$LT$impl$u20$$BP$mut$u20$T$GT$3add17hda59804c831a061bE, .Lfunc_end147-_ZN4core3ptr31_$LT$impl$u20$$BP$mut$u20$T$GT$3add17hda59804c831a061bE
	.cfi_endproc

	.section	".text._ZN4core3ptr31_$LT$impl$u20$$BP$mut$u20$T$GT$6offset17h262d0988c0fa6904E","ax",@progbits
	.p2align	4, 0x90
	.type	_ZN4core3ptr31_$LT$impl$u20$$BP$mut$u20$T$GT$6offset17h262d0988c0fa6904E,@function
_ZN4core3ptr31_$LT$impl$u20$$BP$mut$u20$T$GT$6offset17h262d0988c0fa6904E:
	.cfi_startproc
	subq	$16, %rsp
	.cfi_def_cfa_offset 24
	addq	%rsi, %rdi
	movq	%rdi, 8(%rsp)
	movq	8(%rsp), %rax
	movq	%rax, (%rsp)
	movq	(%rsp), %rax
	addq	$16, %rsp
	.cfi_def_cfa_offset 8
	retq
.Lfunc_end148:
	.size	_ZN4core3ptr31_$LT$impl$u20$$BP$mut$u20$T$GT$6offset17h262d0988c0fa6904E, .Lfunc_end148-_ZN4core3ptr31_$LT$impl$u20$$BP$mut$u20$T$GT$6offset17h262d0988c0fa6904E
	.cfi_endproc

	.section	".text._ZN4core3ptr31_$LT$impl$u20$$BP$mut$u20$T$GT$6offset17h32003c3fe9c89032E","ax",@progbits
	.p2align	4, 0x90
	.type	_ZN4core3ptr31_$LT$impl$u20$$BP$mut$u20$T$GT$6offset17h32003c3fe9c89032E,@function
_ZN4core3ptr31_$LT$impl$u20$$BP$mut$u20$T$GT$6offset17h32003c3fe9c89032E:
	.cfi_startproc
	subq	$16, %rsp
	.cfi_def_cfa_offset 24
	shlq	$8, %rsi
	addq	%rsi, %rdi
	movq	%rdi, 8(%rsp)
	movq	8(%rsp), %rax
	movq	%rax, (%rsp)
	movq	(%rsp), %rax
	addq	$16, %rsp
	.cfi_def_cfa_offset 8
	retq
.Lfunc_end149:
	.size	_ZN4core3ptr31_$LT$impl$u20$$BP$mut$u20$T$GT$6offset17h32003c3fe9c89032E, .Lfunc_end149-_ZN4core3ptr31_$LT$impl$u20$$BP$mut$u20$T$GT$6offset17h32003c3fe9c89032E
	.cfi_endproc

	.section	".text._ZN4core3ptr31_$LT$impl$u20$$BP$mut$u20$T$GT$6offset17hd5e96c3462f9ac0fE","ax",@progbits
	.p2align	4, 0x90
	.type	_ZN4core3ptr31_$LT$impl$u20$$BP$mut$u20$T$GT$6offset17hd5e96c3462f9ac0fE,@function
_ZN4core3ptr31_$LT$impl$u20$$BP$mut$u20$T$GT$6offset17hd5e96c3462f9ac0fE:
	.cfi_startproc
	subq	$16, %rsp
	.cfi_def_cfa_offset 24
	addq	%rsi, %rdi
	movq	%rdi, 8(%rsp)
	movq	8(%rsp), %rax
	movq	%rax, (%rsp)
	movq	(%rsp), %rax
	addq	$16, %rsp
	.cfi_def_cfa_offset 8
	retq
.Lfunc_end150:
	.size	_ZN4core3ptr31_$LT$impl$u20$$BP$mut$u20$T$GT$6offset17hd5e96c3462f9ac0fE, .Lfunc_end150-_ZN4core3ptr31_$LT$impl$u20$$BP$mut$u20$T$GT$6offset17hd5e96c3462f9ac0fE
	.cfi_endproc

	.section	".text._ZN4core3ptr31_$LT$impl$u20$$BP$mut$u20$T$GT$7is_null17h035b50f84cd8fd06E","ax",@progbits
	.p2align	4, 0x90
	.type	_ZN4core3ptr31_$LT$impl$u20$$BP$mut$u20$T$GT$7is_null17h035b50f84cd8fd06E,@function
_ZN4core3ptr31_$LT$impl$u20$$BP$mut$u20$T$GT$7is_null17h035b50f84cd8fd06E:
	.cfi_startproc
	subq	$24, %rsp
	.cfi_def_cfa_offset 32
	movq	%rdi, 16(%rsp)
	callq	_ZN4core3ptr8null_mut17hb9544e20660a44d2E
	movq	%rax, 8(%rsp)
	movq	16(%rsp), %rax
	movq	8(%rsp), %rcx
	cmpq	%rcx, %rax
	sete	%dl
	andb	$1, %dl
	movzbl	%dl, %esi
	movl	%esi, %eax
	addq	$24, %rsp
	.cfi_def_cfa_offset 8
	retq
.Lfunc_end151:
	.size	_ZN4core3ptr31_$LT$impl$u20$$BP$mut$u20$T$GT$7is_null17h035b50f84cd8fd06E, .Lfunc_end151-_ZN4core3ptr31_$LT$impl$u20$$BP$mut$u20$T$GT$7is_null17h035b50f84cd8fd06E
	.cfi_endproc

	.section	".text._ZN4core3ptr31_$LT$impl$u20$$BP$mut$u20$T$GT$7is_null17h2e39d45c524c6014E","ax",@progbits
	.p2align	4, 0x90
	.type	_ZN4core3ptr31_$LT$impl$u20$$BP$mut$u20$T$GT$7is_null17h2e39d45c524c6014E,@function
_ZN4core3ptr31_$LT$impl$u20$$BP$mut$u20$T$GT$7is_null17h2e39d45c524c6014E:
	.cfi_startproc
	subq	$24, %rsp
	.cfi_def_cfa_offset 32
	movq	%rdi, 16(%rsp)
	callq	_ZN4core3ptr8null_mut17hb9544e20660a44d2E
	movq	%rax, 8(%rsp)
	movq	16(%rsp), %rax
	movq	8(%rsp), %rcx
	cmpq	%rcx, %rax
	sete	%dl
	andb	$1, %dl
	movzbl	%dl, %esi
	movl	%esi, %eax
	addq	$24, %rsp
	.cfi_def_cfa_offset 8
	retq
.Lfunc_end152:
	.size	_ZN4core3ptr31_$LT$impl$u20$$BP$mut$u20$T$GT$7is_null17h2e39d45c524c6014E, .Lfunc_end152-_ZN4core3ptr31_$LT$impl$u20$$BP$mut$u20$T$GT$7is_null17h2e39d45c524c6014E
	.cfi_endproc

	.section	".text._ZN4core3ptr31_$LT$impl$u20$$BP$mut$u20$T$GT$7is_null17h70a568b4af647ea7E","ax",@progbits
	.p2align	4, 0x90
	.type	_ZN4core3ptr31_$LT$impl$u20$$BP$mut$u20$T$GT$7is_null17h70a568b4af647ea7E,@function
_ZN4core3ptr31_$LT$impl$u20$$BP$mut$u20$T$GT$7is_null17h70a568b4af647ea7E:
	.cfi_startproc
	subq	$24, %rsp
	.cfi_def_cfa_offset 32
	movq	%rdi, 16(%rsp)
	callq	_ZN4core3ptr8null_mut17hb9544e20660a44d2E
	movq	%rax, 8(%rsp)
	movq	16(%rsp), %rax
	movq	8(%rsp), %rcx
	cmpq	%rcx, %rax
	sete	%dl
	andb	$1, %dl
	movzbl	%dl, %esi
	movl	%esi, %eax
	addq	$24, %rsp
	.cfi_def_cfa_offset 8
	retq
.Lfunc_end153:
	.size	_ZN4core3ptr31_$LT$impl$u20$$BP$mut$u20$T$GT$7is_null17h70a568b4af647ea7E, .Lfunc_end153-_ZN4core3ptr31_$LT$impl$u20$$BP$mut$u20$T$GT$7is_null17h70a568b4af647ea7E
	.cfi_endproc

	.section	".text._ZN4core3ptr33_$LT$impl$u20$$BP$const$u20$T$GT$12wrapping_add17hfb2ca2e549ba43a7E","ax",@progbits
	.p2align	4, 0x90
	.type	_ZN4core3ptr33_$LT$impl$u20$$BP$const$u20$T$GT$12wrapping_add17hfb2ca2e549ba43a7E,@function
_ZN4core3ptr33_$LT$impl$u20$$BP$const$u20$T$GT$12wrapping_add17hfb2ca2e549ba43a7E:
	.cfi_startproc
	pushq	%rax
	.cfi_def_cfa_offset 16
	callq	_ZN4core3ptr33_$LT$impl$u20$$BP$const$u20$T$GT$15wrapping_offset17h73cf24ac8bdecd11E
	movq	%rax, (%rsp)
	movq	(%rsp), %rax
	popq	%rcx
	.cfi_def_cfa_offset 8
	retq
.Lfunc_end154:
	.size	_ZN4core3ptr33_$LT$impl$u20$$BP$const$u20$T$GT$12wrapping_add17hfb2ca2e549ba43a7E, .Lfunc_end154-_ZN4core3ptr33_$LT$impl$u20$$BP$const$u20$T$GT$12wrapping_add17hfb2ca2e549ba43a7E
	.cfi_endproc

	.section	".text._ZN4core3ptr33_$LT$impl$u20$$BP$const$u20$T$GT$15wrapping_offset17h73cf24ac8bdecd11E","ax",@progbits
	.p2align	4, 0x90
	.type	_ZN4core3ptr33_$LT$impl$u20$$BP$const$u20$T$GT$15wrapping_offset17h73cf24ac8bdecd11E,@function
_ZN4core3ptr33_$LT$impl$u20$$BP$const$u20$T$GT$15wrapping_offset17h73cf24ac8bdecd11E:
	.cfi_startproc
	subq	$16, %rsp
	.cfi_def_cfa_offset 24
	addq	%rsi, %rdi
	movq	%rdi, 8(%rsp)
	movq	8(%rsp), %rax
	movq	%rax, (%rsp)
	movq	(%rsp), %rax
	addq	$16, %rsp
	.cfi_def_cfa_offset 8
	retq
.Lfunc_end155:
	.size	_ZN4core3ptr33_$LT$impl$u20$$BP$const$u20$T$GT$15wrapping_offset17h73cf24ac8bdecd11E, .Lfunc_end155-_ZN4core3ptr33_$LT$impl$u20$$BP$const$u20$T$GT$15wrapping_offset17h73cf24ac8bdecd11E
	.cfi_endproc

	.section	".text._ZN4core3ptr33_$LT$impl$u20$$BP$const$u20$T$GT$3add17h80c6d38553969b52E","ax",@progbits
	.p2align	4, 0x90
	.type	_ZN4core3ptr33_$LT$impl$u20$$BP$const$u20$T$GT$3add17h80c6d38553969b52E,@function
_ZN4core3ptr33_$LT$impl$u20$$BP$const$u20$T$GT$3add17h80c6d38553969b52E:
	.cfi_startproc
	pushq	%rax
	.cfi_def_cfa_offset 16
	callq	_ZN4core3ptr33_$LT$impl$u20$$BP$const$u20$T$GT$6offset17h9c784198bc0f2ec4E
	movq	%rax, (%rsp)
	movq	(%rsp), %rax
	popq	%rcx
	.cfi_def_cfa_offset 8
	retq
.Lfunc_end156:
	.size	_ZN4core3ptr33_$LT$impl$u20$$BP$const$u20$T$GT$3add17h80c6d38553969b52E, .Lfunc_end156-_ZN4core3ptr33_$LT$impl$u20$$BP$const$u20$T$GT$3add17h80c6d38553969b52E
	.cfi_endproc

	.section	".text._ZN4core3ptr33_$LT$impl$u20$$BP$const$u20$T$GT$3add17hb87992c1ddea1b32E","ax",@progbits
	.p2align	4, 0x90
	.type	_ZN4core3ptr33_$LT$impl$u20$$BP$const$u20$T$GT$3add17hb87992c1ddea1b32E,@function
_ZN4core3ptr33_$LT$impl$u20$$BP$const$u20$T$GT$3add17hb87992c1ddea1b32E:
	.cfi_startproc
	pushq	%rax
	.cfi_def_cfa_offset 16
	callq	_ZN4core3ptr33_$LT$impl$u20$$BP$const$u20$T$GT$6offset17h271eb8eea411d96fE
	movq	%rax, (%rsp)
	movq	(%rsp), %rax
	popq	%rcx
	.cfi_def_cfa_offset 8
	retq
.Lfunc_end157:
	.size	_ZN4core3ptr33_$LT$impl$u20$$BP$const$u20$T$GT$3add17hb87992c1ddea1b32E, .Lfunc_end157-_ZN4core3ptr33_$LT$impl$u20$$BP$const$u20$T$GT$3add17hb87992c1ddea1b32E
	.cfi_endproc

	.section	".text._ZN4core3ptr33_$LT$impl$u20$$BP$const$u20$T$GT$6offset17h271eb8eea411d96fE","ax",@progbits
	.p2align	4, 0x90
	.type	_ZN4core3ptr33_$LT$impl$u20$$BP$const$u20$T$GT$6offset17h271eb8eea411d96fE,@function
_ZN4core3ptr33_$LT$impl$u20$$BP$const$u20$T$GT$6offset17h271eb8eea411d96fE:
	.cfi_startproc
	subq	$16, %rsp
	.cfi_def_cfa_offset 24
	shlq	$8, %rsi
	addq	%rsi, %rdi
	movq	%rdi, 8(%rsp)
	movq	8(%rsp), %rax
	movq	%rax, (%rsp)
	movq	(%rsp), %rax
	addq	$16, %rsp
	.cfi_def_cfa_offset 8
	retq
.Lfunc_end158:
	.size	_ZN4core3ptr33_$LT$impl$u20$$BP$const$u20$T$GT$6offset17h271eb8eea411d96fE, .Lfunc_end158-_ZN4core3ptr33_$LT$impl$u20$$BP$const$u20$T$GT$6offset17h271eb8eea411d96fE
	.cfi_endproc

	.section	".text._ZN4core3ptr33_$LT$impl$u20$$BP$const$u20$T$GT$6offset17h9c784198bc0f2ec4E","ax",@progbits
	.p2align	4, 0x90
	.type	_ZN4core3ptr33_$LT$impl$u20$$BP$const$u20$T$GT$6offset17h9c784198bc0f2ec4E,@function
_ZN4core3ptr33_$LT$impl$u20$$BP$const$u20$T$GT$6offset17h9c784198bc0f2ec4E:
	.cfi_startproc
	subq	$16, %rsp
	.cfi_def_cfa_offset 24
	addq	%rsi, %rdi
	movq	%rdi, 8(%rsp)
	movq	8(%rsp), %rax
	movq	%rax, (%rsp)
	movq	(%rsp), %rax
	addq	$16, %rsp
	.cfi_def_cfa_offset 8
	retq
.Lfunc_end159:
	.size	_ZN4core3ptr33_$LT$impl$u20$$BP$const$u20$T$GT$6offset17h9c784198bc0f2ec4E, .Lfunc_end159-_ZN4core3ptr33_$LT$impl$u20$$BP$const$u20$T$GT$6offset17h9c784198bc0f2ec4E
	.cfi_endproc

	.section	".text._ZN4core3ptr33_$LT$impl$u20$$BP$const$u20$T$GT$7is_null17h23aba0d771b3076fE","ax",@progbits
	.p2align	4, 0x90
	.type	_ZN4core3ptr33_$LT$impl$u20$$BP$const$u20$T$GT$7is_null17h23aba0d771b3076fE,@function
_ZN4core3ptr33_$LT$impl$u20$$BP$const$u20$T$GT$7is_null17h23aba0d771b3076fE:
	.cfi_startproc
	subq	$24, %rsp
	.cfi_def_cfa_offset 32
	movq	%rdi, 16(%rsp)
	callq	_ZN4core3ptr4null17h083ac635a235d757E
	movq	%rax, 8(%rsp)
	movq	16(%rsp), %rax
	movq	8(%rsp), %rcx
	cmpq	%rcx, %rax
	sete	%dl
	andb	$1, %dl
	movzbl	%dl, %esi
	movl	%esi, %eax
	addq	$24, %rsp
	.cfi_def_cfa_offset 8
	retq
.Lfunc_end160:
	.size	_ZN4core3ptr33_$LT$impl$u20$$BP$const$u20$T$GT$7is_null17h23aba0d771b3076fE, .Lfunc_end160-_ZN4core3ptr33_$LT$impl$u20$$BP$const$u20$T$GT$7is_null17h23aba0d771b3076fE
	.cfi_endproc

	.section	".text._ZN4core3ptr33_$LT$impl$u20$$BP$const$u20$T$GT$7is_null17hc4affb6a076738baE","ax",@progbits
	.p2align	4, 0x90
	.type	_ZN4core3ptr33_$LT$impl$u20$$BP$const$u20$T$GT$7is_null17hc4affb6a076738baE,@function
_ZN4core3ptr33_$LT$impl$u20$$BP$const$u20$T$GT$7is_null17hc4affb6a076738baE:
	.cfi_startproc
	subq	$24, %rsp
	.cfi_def_cfa_offset 32
	movq	%rdi, 16(%rsp)
	callq	_ZN4core3ptr4null17h083ac635a235d757E
	movq	%rax, 8(%rsp)
	movq	16(%rsp), %rax
	movq	8(%rsp), %rcx
	cmpq	%rcx, %rax
	sete	%dl
	andb	$1, %dl
	movzbl	%dl, %esi
	movl	%esi, %eax
	addq	$24, %rsp
	.cfi_def_cfa_offset 8
	retq
.Lfunc_end161:
	.size	_ZN4core3ptr33_$LT$impl$u20$$BP$const$u20$T$GT$7is_null17hc4affb6a076738baE, .Lfunc_end161-_ZN4core3ptr33_$LT$impl$u20$$BP$const$u20$T$GT$7is_null17hc4affb6a076738baE
	.cfi_endproc

	.section	.text._ZN4core3ptr4null17h083ac635a235d757E,"ax",@progbits
	.p2align	4, 0x90
	.type	_ZN4core3ptr4null17h083ac635a235d757E,@function
_ZN4core3ptr4null17h083ac635a235d757E:
	.cfi_startproc
	xorl	%eax, %eax
	retq
.Lfunc_end162:
	.size	_ZN4core3ptr4null17h083ac635a235d757E, .Lfunc_end162-_ZN4core3ptr4null17h083ac635a235d757E
	.cfi_endproc

	.section	.text._ZN4core3ptr4read17hb9e0db5c4ae5c683E,"ax",@progbits
	.p2align	4, 0x90
	.type	_ZN4core3ptr4read17hb9e0db5c4ae5c683E,@function
_ZN4core3ptr4read17hb9e0db5c4ae5c683E:
	.cfi_startproc
	subq	$32, %rsp
	.cfi_def_cfa_offset 40
	movq	24(%rsp), %rax
	movq	%rax, 16(%rsp)
	movq	%rdi, 8(%rsp)
	jmp	.LBB163_2
.LBB163_2:
	movq	8(%rsp), %rax
	movq	(%rax), %rcx
	movq	%rcx, 16(%rsp)
	movq	16(%rsp), %rax
	movq	%rax, (%rsp)
	movq	(%rsp), %rax
	addq	$32, %rsp
	.cfi_def_cfa_offset 8
	retq
.Lfunc_end163:
	.size	_ZN4core3ptr4read17hb9e0db5c4ae5c683E, .Lfunc_end163-_ZN4core3ptr4read17hb9e0db5c4ae5c683E
	.cfi_endproc

	.section	.text._ZN4core3ptr4read17hfaadbf7ff407e75eE,"ax",@progbits
	.p2align	4, 0x90
	.type	_ZN4core3ptr4read17hfaadbf7ff407e75eE,@function
_ZN4core3ptr4read17hfaadbf7ff407e75eE:
	.cfi_startproc
	subq	$56, %rsp
	.cfi_def_cfa_offset 64
	movq	40(%rsp), %rax
	movq	48(%rsp), %rcx
	movq	%rcx, 32(%rsp)
	movq	%rax, 24(%rsp)
	movq	%rdi, 16(%rsp)
	jmp	.LBB164_2
.LBB164_2:
	movq	16(%rsp), %rax
	movq	(%rax), %rcx
	movq	%rcx, 24(%rsp)
	movq	8(%rax), %rcx
	movq	%rcx, 32(%rsp)
	movq	24(%rsp), %rax
	movq	32(%rsp), %rdx
	movq	%rax, 8(%rsp)
	movq	%rdx, (%rsp)
	movq	8(%rsp), %rax
	movq	(%rsp), %rdx
	addq	$56, %rsp
	.cfi_def_cfa_offset 8
	retq
.Lfunc_end164:
	.size	_ZN4core3ptr4read17hfaadbf7ff407e75eE, .Lfunc_end164-_ZN4core3ptr4read17hfaadbf7ff407e75eE
	.cfi_endproc

	.section	.text._ZN4core3ptr4swap17h08d020aea7d39853E,"ax",@progbits
	.p2align	4, 0x90
	.type	_ZN4core3ptr4swap17h08d020aea7d39853E,@function
_ZN4core3ptr4swap17h08d020aea7d39853E:
	.cfi_startproc
	subq	$24, %rsp
	.cfi_def_cfa_offset 32
	movb	23(%rsp), %al
	movb	%al, 22(%rsp)
	movq	%rdi, 8(%rsp)
	movq	%rsi, (%rsp)
	jmp	.LBB165_2
.LBB165_2:
	movq	8(%rsp), %rax
	movb	(%rax), %cl
	movb	%cl, 22(%rsp)
	movq	(%rsp), %rax
	movb	(%rax), %cl
	movq	8(%rsp), %rdx
	movb	%cl, (%rdx)
	jmp	.LBB165_5
.LBB165_5:
	movb	22(%rsp), %al
	movq	(%rsp), %rcx
	movb	%al, (%rcx)
	addq	$24, %rsp
	.cfi_def_cfa_offset 8
	retq
.Lfunc_end165:
	.size	_ZN4core3ptr4swap17h08d020aea7d39853E, .Lfunc_end165-_ZN4core3ptr4swap17h08d020aea7d39853E
	.cfi_endproc

	.section	.text._ZN4core3ptr5write17h048d5a3d1679a292E,"ax",@progbits
	.p2align	4, 0x90
	.type	_ZN4core3ptr5write17h048d5a3d1679a292E,@function
_ZN4core3ptr5write17h048d5a3d1679a292E:
	.cfi_startproc
	movq	%rsi, (%rdi)
	movq	%rdx, 8(%rdi)
	retq
.Lfunc_end166:
	.size	_ZN4core3ptr5write17h048d5a3d1679a292E, .Lfunc_end166-_ZN4core3ptr5write17h048d5a3d1679a292E
	.cfi_endproc

	.section	.text._ZN4core3ptr5write17h3a1b92f396bafaf6E,"ax",@progbits
	.p2align	4, 0x90
	.type	_ZN4core3ptr5write17h3a1b92f396bafaf6E,@function
_ZN4core3ptr5write17h3a1b92f396bafaf6E:
	.cfi_startproc
	pushq	%rax
	.cfi_def_cfa_offset 16
	movl	$256, %edx
	callq	memcpy@PLT
	popq	%rax
	.cfi_def_cfa_offset 8
	retq
.Lfunc_end167:
	.size	_ZN4core3ptr5write17h3a1b92f396bafaf6E, .Lfunc_end167-_ZN4core3ptr5write17h3a1b92f396bafaf6E
	.cfi_endproc

	.section	.text._ZN4core3ptr5write17h4ecf4d6b7a450033E,"ax",@progbits
	.p2align	4, 0x90
	.type	_ZN4core3ptr5write17h4ecf4d6b7a450033E,@function
_ZN4core3ptr5write17h4ecf4d6b7a450033E:
	.cfi_startproc
	movq	%rsi, (%rdi)
	retq
.Lfunc_end168:
	.size	_ZN4core3ptr5write17h4ecf4d6b7a450033E, .Lfunc_end168-_ZN4core3ptr5write17h4ecf4d6b7a450033E
	.cfi_endproc

	.section	.text._ZN4core3ptr5write17hd038902c41a85a1eE,"ax",@progbits
	.p2align	4, 0x90
	.type	_ZN4core3ptr5write17hd038902c41a85a1eE,@function
_ZN4core3ptr5write17hd038902c41a85a1eE:
	.cfi_startproc
	movb	%sil, %al
	andb	$1, %al
	movb	%al, (%rdi)
	retq
.Lfunc_end169:
	.size	_ZN4core3ptr5write17hd038902c41a85a1eE, .Lfunc_end169-_ZN4core3ptr5write17hd038902c41a85a1eE
	.cfi_endproc

	.section	.text._ZN4core3ptr8null_mut17hb9544e20660a44d2E,"ax",@progbits
	.p2align	4, 0x90
	.type	_ZN4core3ptr8null_mut17hb9544e20660a44d2E,@function
_ZN4core3ptr8null_mut17hb9544e20660a44d2E:
	.cfi_startproc
	xorl	%eax, %eax
	retq
.Lfunc_end170:
	.size	_ZN4core3ptr8null_mut17hb9544e20660a44d2E, .Lfunc_end170-_ZN4core3ptr8null_mut17hb9544e20660a44d2E
	.cfi_endproc

	.section	".text._ZN4core4iter5range93_$LT$impl$u20$core..iter..iterator..Iterator$u20$for$u20$core..ops..range..Range$LT$A$GT$$GT$4next17h86fc2f8c85def6a0E","ax",@progbits
	.p2align	4, 0x90
	.type	_ZN4core4iter5range93_$LT$impl$u20$core..iter..iterator..Iterator$u20$for$u20$core..ops..range..Range$LT$A$GT$$GT$4next17h86fc2f8c85def6a0E,@function
_ZN4core4iter5range93_$LT$impl$u20$core..iter..iterator..Iterator$u20$for$u20$core..ops..range..Range$LT$A$GT$$GT$4next17h86fc2f8c85def6a0E:
.Lfunc_begin22:
	.cfi_startproc
	.cfi_personality 155, DW.ref.rust_eh_personality
	.cfi_lsda 27, .Lexception22
	subq	$88, %rsp
	.cfi_def_cfa_offset 96
	movb	$0, 71(%rsp)
	movq	%rdi, %rax
	movq	%rdi, %rcx
	addq	$8, %rcx
	movq	%rdi, 16(%rsp)
	movq	%rax, %rdi
	movq	%rcx, %rsi
	callq	_ZN4core3cmp5impls57_$LT$impl$u20$core..cmp..PartialOrd$u20$for$u20$usize$GT$2lt17h7d2b50b8f40b34bfE
	movb	%al, 15(%rsp)
	jmp	.LBB171_2
.LBB171_1:
	movq	72(%rsp), %rdi
	callq	_Unwind_Resume@PLT
	ud2
.LBB171_2:
	movb	15(%rsp), %al
	testb	$1, %al
	jne	.LBB171_3
	jmp	.LBB171_4
.LBB171_3:
	movb	$1, 71(%rsp)
	movl	$1, %esi
	movq	16(%rsp), %rdi
	callq	_ZN49_$LT$usize$u20$as$u20$core..iter..range..Step$GT$9add_usize17h723d065915cb183eE
	movq	%rdx, 48(%rsp)
	movq	%rax, 40(%rsp)
	jmp	.LBB171_5
.LBB171_4:
	movq	$0, 24(%rsp)
	jmp	.LBB171_12
.LBB171_5:
	cmpq	$1, 40(%rsp)
	je	.LBB171_7
	movq	$0, 24(%rsp)
	jmp	.LBB171_11
.LBB171_7:
	movb	$0, 71(%rsp)
	movq	48(%rsp), %rax
	movq	%rax, 56(%rsp)
.Ltmp139:
	leaq	56(%rsp), %rdi
	movq	16(%rsp), %rsi
	callq	_ZN4core3mem4swap17h9954735ca800fd13E
.Ltmp140:
	jmp	.LBB171_8
.LBB171_8:
	movq	56(%rsp), %rax
	movq	%rax, 32(%rsp)
	movq	$1, 24(%rsp)
	jmp	.LBB171_11
.LBB171_9:
	cmpq	$1, 40(%rsp)
	je	.LBB171_1
	jmp	.LBB171_13
.LBB171_10:
	jmp	.LBB171_9
.LBB171_11:
	cmpq	$1, 40(%rsp)
	je	.LBB171_15
	jmp	.LBB171_17
.LBB171_12:
	movq	24(%rsp), %rax
	movq	32(%rsp), %rdx
	addq	$88, %rsp
	.cfi_def_cfa_offset 8
	retq
.LBB171_13:
	.cfi_def_cfa_offset 96
	jmp	.LBB171_1
.LBB171_14:
	movb	$0, 71(%rsp)
	jmp	.LBB171_12
.LBB171_15:
	testb	$1, 71(%rsp)
	je	.LBB171_14
	movb	$0, 71(%rsp)
	jmp	.LBB171_14
.LBB171_17:
	jmp	.LBB171_14
.LBB171_18:
.Ltmp141:
	movl	%edx, %ecx
	movq	%rax, 72(%rsp)
	movl	%ecx, 80(%rsp)
	jmp	.LBB171_10
.Lfunc_end171:
	.size	_ZN4core4iter5range93_$LT$impl$u20$core..iter..iterator..Iterator$u20$for$u20$core..ops..range..Range$LT$A$GT$$GT$4next17h86fc2f8c85def6a0E, .Lfunc_end171-_ZN4core4iter5range93_$LT$impl$u20$core..iter..iterator..Iterator$u20$for$u20$core..ops..range..Range$LT$A$GT$$GT$4next17h86fc2f8c85def6a0E
	.cfi_endproc
	.section	.gcc_except_table,"a",@progbits
	.p2align	2
GCC_except_table171:
.Lexception22:
	.byte	255
	.byte	255
	.byte	1
	.uleb128 .Lcst_end22-.Lcst_begin22
.Lcst_begin22:
	.uleb128 .Lfunc_begin22-.Lfunc_begin22
	.uleb128 .Ltmp139-.Lfunc_begin22
	.byte	0
	.byte	0
	.uleb128 .Ltmp139-.Lfunc_begin22
	.uleb128 .Ltmp140-.Ltmp139
	.uleb128 .Ltmp141-.Lfunc_begin22
	.byte	0
.Lcst_end22:
	.p2align	2

	.section	.text._ZN4core5alloc10size_align17h9458aad69d5ee43fE,"ax",@progbits
	.p2align	4, 0x90
	.type	_ZN4core5alloc10size_align17h9458aad69d5ee43fE,@function
_ZN4core5alloc10size_align17h9458aad69d5ee43fE:
	.cfi_startproc
	subq	$40, %rsp
	.cfi_def_cfa_offset 48
	callq	_ZN4core3mem7size_of17h436ecd71989f1da2E
	movq	%rax, 16(%rsp)
	callq	_ZN4core3mem8align_of17h5beb0207f74c96b9E
	movq	%rax, 8(%rsp)
	movq	16(%rsp), %rax
	movq	%rax, 24(%rsp)
	movq	8(%rsp), %rcx
	movq	%rcx, 32(%rsp)
	movq	24(%rsp), %rax
	movq	32(%rsp), %rdx
	addq	$40, %rsp
	.cfi_def_cfa_offset 8
	retq
.Lfunc_end172:
	.size	_ZN4core5alloc10size_align17h9458aad69d5ee43fE, .Lfunc_end172-_ZN4core5alloc10size_align17h9458aad69d5ee43fE
	.cfi_endproc

	.section	.text._ZN4core5alloc10size_align17had549d34258efed6E,"ax",@progbits
	.p2align	4, 0x90
	.type	_ZN4core5alloc10size_align17had549d34258efed6E,@function
_ZN4core5alloc10size_align17had549d34258efed6E:
	.cfi_startproc
	subq	$40, %rsp
	.cfi_def_cfa_offset 48
	callq	_ZN4core3mem7size_of17h03b5324af02046fdE
	movq	%rax, 16(%rsp)
	callq	_ZN4core3mem8align_of17h6cbf56e216ba83fbE
	movq	%rax, 8(%rsp)
	movq	16(%rsp), %rax
	movq	%rax, 24(%rsp)
	movq	8(%rsp), %rcx
	movq	%rcx, 32(%rsp)
	movq	24(%rsp), %rax
	movq	32(%rsp), %rdx
	addq	$40, %rsp
	.cfi_def_cfa_offset 8
	retq
.Lfunc_end173:
	.size	_ZN4core5alloc10size_align17had549d34258efed6E, .Lfunc_end173-_ZN4core5alloc10size_align17had549d34258efed6E
	.cfi_endproc

	.section	.text._ZN4core5alloc6Layout15from_size_align17hbd556314a0dd1522E,"ax",@progbits
	.p2align	4, 0x90
	.type	_ZN4core5alloc6Layout15from_size_align17hbd556314a0dd1522E,@function
_ZN4core5alloc6Layout15from_size_align17hbd556314a0dd1522E:
	.cfi_startproc
	subq	$88, %rsp
	.cfi_def_cfa_offset 96
	movq	%rdi, 32(%rsp)
	movq	%rsi, %rdi
	movq	%rsi, 24(%rsp)
	callq	_ZN4core3num23_$LT$impl$u20$usize$GT$15is_power_of_two17h33072312ce781d24E
	movb	%al, 23(%rsp)
	movb	23(%rsp), %al
	xorb	$-1, %al
	testb	$1, %al
	jne	.LBB174_2
	jmp	.LBB174_3
.LBB174_2:
	movq	$0, 48(%rsp)
	jmp	.LBB174_4
.LBB174_3:
	movq	24(%rsp), %rax
	subq	$1, %rax
	movq	$-1, %rcx
	subq	%rax, %rcx
	movq	32(%rsp), %rax
	cmpq	%rcx, %rax
	ja	.LBB174_5
	jmp	.LBB174_6
.LBB174_4:
	movq	40(%rsp), %rax
	movq	48(%rsp), %rdx
	addq	$88, %rsp
	.cfi_def_cfa_offset 8
	retq
.LBB174_5:
	.cfi_def_cfa_offset 96
	movq	$0, 48(%rsp)
	jmp	.LBB174_4
.LBB174_6:
	movq	32(%rsp), %rdi
	movq	24(%rsp), %rsi
	callq	_ZN4core5alloc6Layout25from_size_align_unchecked17h508f9a941507fc18E
	movq	%rax, 8(%rsp)
	movq	%rdx, (%rsp)
	movq	8(%rsp), %rax
	movq	%rax, 40(%rsp)
	movq	(%rsp), %rcx
	movq	%rcx, 48(%rsp)
	jmp	.LBB174_4
.Lfunc_end174:
	.size	_ZN4core5alloc6Layout15from_size_align17hbd556314a0dd1522E, .Lfunc_end174-_ZN4core5alloc6Layout15from_size_align17hbd556314a0dd1522E
	.cfi_endproc

	.section	.text._ZN4core5alloc6Layout18padding_needed_for17he9d7c2c0cbee3902E,"ax",@progbits
	.p2align	4, 0x90
	.type	_ZN4core5alloc6Layout18padding_needed_for17he9d7c2c0cbee3902E,@function
_ZN4core5alloc6Layout18padding_needed_for17he9d7c2c0cbee3902E:
	.cfi_startproc
	subq	$56, %rsp
	.cfi_def_cfa_offset 64
	movq	%rsi, 48(%rsp)
	callq	_ZN4core5alloc6Layout4size17h15dce328eb04a6a3E
	movq	%rax, 40(%rsp)
	movq	40(%rsp), %rdi
	movq	48(%rsp), %rsi
	callq	_ZN4core3num23_$LT$impl$u20$usize$GT$12wrapping_add17h435f48606f59f870E
	movq	%rax, 32(%rsp)
	movq	32(%rsp), %rdi
	movl	$1, %esi
	callq	_ZN4core3num23_$LT$impl$u20$usize$GT$12wrapping_sub17hb395a5a57fe119c8E
	movq	%rax, 24(%rsp)
	movq	48(%rsp), %rdi
	movl	$1, %esi
	callq	_ZN4core3num23_$LT$impl$u20$usize$GT$12wrapping_sub17hb395a5a57fe119c8E
	movq	%rax, 16(%rsp)
	movq	16(%rsp), %rax
	xorq	$-1, %rax
	movq	24(%rsp), %rcx
	andq	%rax, %rcx
	movq	%rcx, %rdi
	movq	40(%rsp), %rsi
	callq	_ZN4core3num23_$LT$impl$u20$usize$GT$12wrapping_sub17hb395a5a57fe119c8E
	movq	%rax, 8(%rsp)
	movq	8(%rsp), %rax
	addq	$56, %rsp
	.cfi_def_cfa_offset 8
	retq
.Lfunc_end175:
	.size	_ZN4core5alloc6Layout18padding_needed_for17he9d7c2c0cbee3902E, .Lfunc_end175-_ZN4core5alloc6Layout18padding_needed_for17he9d7c2c0cbee3902E
	.cfi_endproc

	.section	.text._ZN4core5alloc6Layout25from_size_align_unchecked17h508f9a941507fc18E,"ax",@progbits
	.p2align	4, 0x90
	.type	_ZN4core5alloc6Layout25from_size_align_unchecked17h508f9a941507fc18E,@function
_ZN4core5alloc6Layout25from_size_align_unchecked17h508f9a941507fc18E:
	.cfi_startproc
	subq	$40, %rsp
	.cfi_def_cfa_offset 48
	movq	%rdi, 16(%rsp)
	movq	%rsi, %rdi
	callq	_ZN4core3num12NonZeroUsize13new_unchecked17h19f4445d3a7c12f2E
	movq	%rax, 8(%rsp)
	movq	16(%rsp), %rax
	movq	%rax, 24(%rsp)
	movq	8(%rsp), %rcx
	movq	%rcx, 32(%rsp)
	movq	24(%rsp), %rax
	movq	32(%rsp), %rdx
	addq	$40, %rsp
	.cfi_def_cfa_offset 8
	retq
.Lfunc_end176:
	.size	_ZN4core5alloc6Layout25from_size_align_unchecked17h508f9a941507fc18E, .Lfunc_end176-_ZN4core5alloc6Layout25from_size_align_unchecked17h508f9a941507fc18E
	.cfi_endproc

	.section	.text._ZN4core5alloc6Layout3new17h6ddb7bf685dd28ebE,"ax",@progbits
	.p2align	4, 0x90
	.type	_ZN4core5alloc6Layout3new17h6ddb7bf685dd28ebE,@function
_ZN4core5alloc6Layout3new17h6ddb7bf685dd28ebE:
	.cfi_startproc
	subq	$40, %rsp
	.cfi_def_cfa_offset 48
	callq	_ZN4core5alloc10size_align17had549d34258efed6E
	movq	%rax, 32(%rsp)
	movq	%rdx, 24(%rsp)
	movq	32(%rsp), %rdi
	movq	24(%rsp), %rsi
	callq	_ZN4core5alloc6Layout25from_size_align_unchecked17h508f9a941507fc18E
	movq	%rax, 16(%rsp)
	movq	%rdx, 8(%rsp)
	movq	16(%rsp), %rax
	movq	8(%rsp), %rdx
	addq	$40, %rsp
	.cfi_def_cfa_offset 8
	retq
.Lfunc_end177:
	.size	_ZN4core5alloc6Layout3new17h6ddb7bf685dd28ebE, .Lfunc_end177-_ZN4core5alloc6Layout3new17h6ddb7bf685dd28ebE
	.cfi_endproc

	.section	.text._ZN4core5alloc6Layout3new17hd71689684d20cdf3E,"ax",@progbits
	.p2align	4, 0x90
	.type	_ZN4core5alloc6Layout3new17hd71689684d20cdf3E,@function
_ZN4core5alloc6Layout3new17hd71689684d20cdf3E:
	.cfi_startproc
	subq	$40, %rsp
	.cfi_def_cfa_offset 48
	callq	_ZN4core5alloc10size_align17h9458aad69d5ee43fE
	movq	%rax, 32(%rsp)
	movq	%rdx, 24(%rsp)
	movq	32(%rsp), %rdi
	movq	24(%rsp), %rsi
	callq	_ZN4core5alloc6Layout25from_size_align_unchecked17h508f9a941507fc18E
	movq	%rax, 16(%rsp)
	movq	%rdx, 8(%rsp)
	movq	16(%rsp), %rax
	movq	8(%rsp), %rdx
	addq	$40, %rsp
	.cfi_def_cfa_offset 8
	retq
.Lfunc_end178:
	.size	_ZN4core5alloc6Layout3new17hd71689684d20cdf3E, .Lfunc_end178-_ZN4core5alloc6Layout3new17hd71689684d20cdf3E
	.cfi_endproc

	.section	.text._ZN4core5alloc6Layout4size17h15dce328eb04a6a3E,"ax",@progbits
	.p2align	4, 0x90
	.type	_ZN4core5alloc6Layout4size17h15dce328eb04a6a3E,@function
_ZN4core5alloc6Layout4size17h15dce328eb04a6a3E:
	.cfi_startproc
	movq	(%rdi), %rax
	retq
.Lfunc_end179:
	.size	_ZN4core5alloc6Layout4size17h15dce328eb04a6a3E, .Lfunc_end179-_ZN4core5alloc6Layout4size17h15dce328eb04a6a3E
	.cfi_endproc

	.section	.text._ZN4core5alloc6Layout5align17h13f65997ab32cd65E,"ax",@progbits
	.p2align	4, 0x90
	.type	_ZN4core5alloc6Layout5align17h13f65997ab32cd65E,@function
_ZN4core5alloc6Layout5align17h13f65997ab32cd65E:
	.cfi_startproc
	pushq	%rax
	.cfi_def_cfa_offset 16
	movq	8(%rdi), %rdi
	callq	_ZN4core3num12NonZeroUsize3get17h2d80b87b43cef12fE
	movq	%rax, (%rsp)
	movq	(%rsp), %rax
	popq	%rcx
	.cfi_def_cfa_offset 8
	retq
.Lfunc_end180:
	.size	_ZN4core5alloc6Layout5align17h13f65997ab32cd65E, .Lfunc_end180-_ZN4core5alloc6Layout5align17h13f65997ab32cd65E
	.cfi_endproc

	.section	.text._ZN4core5alloc6Layout5array17h3c13e0bb6c550787E,"ax",@progbits
	.p2align	4, 0x90
	.type	_ZN4core5alloc6Layout5array17h3c13e0bb6c550787E,@function
_ZN4core5alloc6Layout5array17h3c13e0bb6c550787E:
	.cfi_startproc
	subq	$72, %rsp
	.cfi_def_cfa_offset 80
	movq	%rdi, 16(%rsp)
	callq	_ZN4core5alloc6Layout3new17h6ddb7bf685dd28ebE
	movq	%rdx, 56(%rsp)
	movq	%rax, 48(%rsp)
	leaq	24(%rsp), %rdi
	leaq	48(%rsp), %rsi
	movq	16(%rsp), %rdx
	callq	_ZN4core5alloc6Layout6repeat17h5bf2078986efc70eE
	leaq	24(%rsp), %rdi
	callq	_ZN47_$LT$core..result..Result$LT$T$C$$u20$E$GT$$GT$3map17hca57c21eda0fa6d4E
	movq	%rax, 8(%rsp)
	movq	%rdx, (%rsp)
	movq	8(%rsp), %rax
	movq	(%rsp), %rdx
	addq	$72, %rsp
	.cfi_def_cfa_offset 8
	retq
.Lfunc_end181:
	.size	_ZN4core5alloc6Layout5array17h3c13e0bb6c550787E, .Lfunc_end181-_ZN4core5alloc6Layout5array17h3c13e0bb6c550787E
	.cfi_endproc

	.section	.text._ZN4core5alloc6Layout5array17hbb37feea0729d09dE,"ax",@progbits
	.p2align	4, 0x90
	.type	_ZN4core5alloc6Layout5array17hbb37feea0729d09dE,@function
_ZN4core5alloc6Layout5array17hbb37feea0729d09dE:
	.cfi_startproc
	subq	$72, %rsp
	.cfi_def_cfa_offset 80
	movq	%rdi, 16(%rsp)
	callq	_ZN4core5alloc6Layout3new17hd71689684d20cdf3E
	movq	%rdx, 56(%rsp)
	movq	%rax, 48(%rsp)
	leaq	24(%rsp), %rdi
	leaq	48(%rsp), %rsi
	movq	16(%rsp), %rdx
	callq	_ZN4core5alloc6Layout6repeat17h5bf2078986efc70eE
	leaq	24(%rsp), %rdi
	callq	_ZN47_$LT$core..result..Result$LT$T$C$$u20$E$GT$$GT$3map17h45c01df576c844f7E
	movq	%rax, 8(%rsp)
	movq	%rdx, (%rsp)
	movq	8(%rsp), %rax
	movq	(%rsp), %rdx
	addq	$72, %rsp
	.cfi_def_cfa_offset 8
	retq
.Lfunc_end182:
	.size	_ZN4core5alloc6Layout5array17hbb37feea0729d09dE, .Lfunc_end182-_ZN4core5alloc6Layout5array17hbb37feea0729d09dE
	.cfi_endproc

	.section	".text._ZN4core5alloc6Layout5array28_$u7b$$u7b$closure$u7d$$u7d$17h566d482f3735519dE","ax",@progbits
	.p2align	4, 0x90
	.type	_ZN4core5alloc6Layout5array28_$u7b$$u7b$closure$u7d$$u7d$17h566d482f3735519dE,@function
_ZN4core5alloc6Layout5array28_$u7b$$u7b$closure$u7d$$u7d$17h566d482f3735519dE:
	.cfi_startproc
	movq	(%rdi), %rax
	movq	8(%rdi), %rdx
	retq
.Lfunc_end183:
	.size	_ZN4core5alloc6Layout5array28_$u7b$$u7b$closure$u7d$$u7d$17h566d482f3735519dE, .Lfunc_end183-_ZN4core5alloc6Layout5array28_$u7b$$u7b$closure$u7d$$u7d$17h566d482f3735519dE
	.cfi_endproc

	.section	".text._ZN4core5alloc6Layout5array28_$u7b$$u7b$closure$u7d$$u7d$17h909fd84fde210160E","ax",@progbits
	.p2align	4, 0x90
	.type	_ZN4core5alloc6Layout5array28_$u7b$$u7b$closure$u7d$$u7d$17h909fd84fde210160E,@function
_ZN4core5alloc6Layout5array28_$u7b$$u7b$closure$u7d$$u7d$17h909fd84fde210160E:
	.cfi_startproc
	movq	(%rdi), %rax
	movq	8(%rdi), %rdx
	retq
.Lfunc_end184:
	.size	_ZN4core5alloc6Layout5array28_$u7b$$u7b$closure$u7d$$u7d$17h909fd84fde210160E, .Lfunc_end184-_ZN4core5alloc6Layout5array28_$u7b$$u7b$closure$u7d$$u7d$17h909fd84fde210160E
	.cfi_endproc

	.section	.text._ZN4core5alloc6Layout6repeat17h5bf2078986efc70eE,"ax",@progbits
	.p2align	4, 0x90
	.type	_ZN4core5alloc6Layout6repeat17h5bf2078986efc70eE,@function
_ZN4core5alloc6Layout6repeat17h5bf2078986efc70eE:
	.cfi_startproc
	subq	$280, %rsp
	.cfi_def_cfa_offset 288
	movq	%rdi, %rax
	movq	%rdi, 184(%rsp)
	movq	%rsi, %rdi
	movq	%rax, 176(%rsp)
	movq	%rdx, 168(%rsp)
	movq	%rsi, 160(%rsp)
	callq	_ZN4core5alloc6Layout4size17h15dce328eb04a6a3E
	movq	%rax, 152(%rsp)
	movq	160(%rsp), %rdi
	callq	_ZN4core5alloc6Layout5align17h13f65997ab32cd65E
	movq	%rax, 144(%rsp)
	movq	160(%rsp), %rdi
	movq	144(%rsp), %rsi
	callq	_ZN4core5alloc6Layout18padding_needed_for17he9d7c2c0cbee3902E
	movq	%rax, 136(%rsp)
	movq	152(%rsp), %rdi
	movq	136(%rsp), %rsi
	callq	_ZN4core3num23_$LT$impl$u20$usize$GT$11checked_add17hdbf569c01a5ee22dE
	movq	%rax, 128(%rsp)
	movq	%rdx, 120(%rsp)
	movq	128(%rsp), %rdi
	movq	120(%rsp), %rsi
	callq	_ZN38_$LT$core..option..Option$LT$T$GT$$GT$5ok_or17heec80dd4b7b4acb8E
	movq	%rax, 112(%rsp)
	movq	%rdx, 104(%rsp)
	movq	112(%rsp), %rdi
	movq	104(%rsp), %rsi
	callq	_ZN78_$LT$core..result..Result$LT$T$C$$u20$E$GT$$u20$as$u20$core..ops..try..Try$GT$11into_result17h7bdb48e98c01f2b4E
	movq	%rdx, 200(%rsp)
	movq	%rax, 192(%rsp)
	movq	192(%rsp), %rax
	testq	%rax, %rax
	movq	%rax, 96(%rsp)
	je	.LBB185_8
	jmp	.LBB185_23
.LBB185_23:
	movq	96(%rsp), %rax
	subq	$1, %rax
	movq	%rax, 88(%rsp)
	je	.LBB185_9
	jmp	.LBB185_7
.LBB185_7:
	ud2
.LBB185_8:
	movq	200(%rsp), %rax
	movq	%rax, %rdi
	movq	168(%rsp), %rsi
	movq	%rax, 80(%rsp)
	callq	_ZN4core3num23_$LT$impl$u20$usize$GT$11checked_mul17h1cd8f220f78e9c78E
	movq	%rax, 72(%rsp)
	movq	%rdx, 64(%rsp)
	jmp	.LBB185_14
.LBB185_9:
	callq	_ZN50_$LT$T$u20$as$u20$core..convert..From$LT$T$GT$$GT$4from17h5b169dbeff8a7021E
	movq	184(%rsp), %rdi
	callq	_ZN78_$LT$core..result..Result$LT$T$C$$u20$E$GT$$u20$as$u20$core..ops..try..Try$GT$10from_error17h313b732ae5edb72aE
	jmp	.LBB185_13
.LBB185_12:
	movq	176(%rsp), %rax
	addq	$280, %rsp
	.cfi_def_cfa_offset 8
	retq
.LBB185_13:
	.cfi_def_cfa_offset 288
	jmp	.LBB185_12
.LBB185_14:
	movq	72(%rsp), %rdi
	movq	64(%rsp), %rsi
	callq	_ZN38_$LT$core..option..Option$LT$T$GT$$GT$5ok_or17heec80dd4b7b4acb8E
	movq	%rax, 56(%rsp)
	movq	%rdx, 48(%rsp)
	movq	56(%rsp), %rdi
	movq	48(%rsp), %rsi
	callq	_ZN78_$LT$core..result..Result$LT$T$C$$u20$E$GT$$u20$as$u20$core..ops..try..Try$GT$11into_result17h7bdb48e98c01f2b4E
	movq	%rdx, 232(%rsp)
	movq	%rax, 224(%rsp)
	movq	224(%rsp), %rax
	testq	%rax, %rax
	movq	%rax, 40(%rsp)
	je	.LBB185_17
	jmp	.LBB185_24
.LBB185_24:
	movq	40(%rsp), %rax
	subq	$1, %rax
	movq	%rax, 32(%rsp)
	je	.LBB185_18
	jmp	.LBB185_7
.LBB185_17:
	movq	232(%rsp), %rdi
	movq	160(%rsp), %rax
	movq	%rdi, 24(%rsp)
	movq	%rax, %rdi
	callq	_ZN4core5alloc6Layout5align17h13f65997ab32cd65E
	movq	%rax, 16(%rsp)
	jmp	.LBB185_21
.LBB185_18:
	callq	_ZN50_$LT$T$u20$as$u20$core..convert..From$LT$T$GT$$GT$4from17h5b169dbeff8a7021E
	movq	184(%rsp), %rdi
	callq	_ZN78_$LT$core..result..Result$LT$T$C$$u20$E$GT$$u20$as$u20$core..ops..try..Try$GT$10from_error17h313b732ae5edb72aE
	jmp	.LBB185_13
.LBB185_21:
	movq	24(%rsp), %rdi
	movq	16(%rsp), %rsi
	callq	_ZN4core5alloc6Layout25from_size_align_unchecked17h508f9a941507fc18E
	movq	%rax, 8(%rsp)
	movq	%rdx, (%rsp)
	movq	8(%rsp), %rax
	movq	%rax, 256(%rsp)
	movq	(%rsp), %rcx
	movq	%rcx, 264(%rsp)
	movq	80(%rsp), %rdx
	movq	%rdx, 272(%rsp)
	movq	256(%rsp), %rsi
	movq	184(%rsp), %rdi
	movq	%rsi, (%rdi)
	movq	264(%rsp), %rsi
	movq	%rsi, 8(%rdi)
	movq	272(%rsp), %rsi
	movq	%rsi, 16(%rdi)
	jmp	.LBB185_12
.Lfunc_end185:
	.size	_ZN4core5alloc6Layout6repeat17h5bf2078986efc70eE, .Lfunc_end185-_ZN4core5alloc6Layout6repeat17h5bf2078986efc70eE
	.cfi_endproc

	.section	".text._ZN4core5clone5impls53_$LT$impl$u20$core..clone..Clone$u20$for$u20$bool$GT$5clone17h5109991a9c0bae85E","ax",@progbits
	.p2align	4, 0x90
	.type	_ZN4core5clone5impls53_$LT$impl$u20$core..clone..Clone$u20$for$u20$bool$GT$5clone17h5109991a9c0bae85E,@function
_ZN4core5clone5impls53_$LT$impl$u20$core..clone..Clone$u20$for$u20$bool$GT$5clone17h5109991a9c0bae85E:
	.cfi_startproc
	movb	(%rdi), %al
	andb	$1, %al
	movzbl	%al, %eax
	retq
.Lfunc_end186:
	.size	_ZN4core5clone5impls53_$LT$impl$u20$core..clone..Clone$u20$for$u20$bool$GT$5clone17h5109991a9c0bae85E, .Lfunc_end186-_ZN4core5clone5impls53_$LT$impl$u20$core..clone..Clone$u20$for$u20$bool$GT$5clone17h5109991a9c0bae85E
	.cfi_endproc

	.section	.text._ZN4core5slice14from_raw_parts17h3b311c5410f1d49dE,"ax",@progbits
	.p2align	4, 0x90
	.type	_ZN4core5slice14from_raw_parts17h3b311c5410f1d49dE,@function
_ZN4core5slice14from_raw_parts17h3b311c5410f1d49dE:
	.cfi_startproc
	subq	$32, %rsp
	.cfi_def_cfa_offset 40
	movq	%rdi, 16(%rsp)
	movq	%rsi, 24(%rsp)
	movq	16(%rsp), %rsi
	movq	24(%rsp), %rdi
	movq	%rsi, (%rsp)
	movq	%rdi, 8(%rsp)
	movq	(%rsp), %rax
	movq	8(%rsp), %rdx
	addq	$32, %rsp
	.cfi_def_cfa_offset 8
	retq
.Lfunc_end187:
	.size	_ZN4core5slice14from_raw_parts17h3b311c5410f1d49dE, .Lfunc_end187-_ZN4core5slice14from_raw_parts17h3b311c5410f1d49dE
	.cfi_endproc

	.section	.text._ZN4core5slice14from_raw_parts17h4a22de26e78c3c1fE,"ax",@progbits
	.p2align	4, 0x90
	.type	_ZN4core5slice14from_raw_parts17h4a22de26e78c3c1fE,@function
_ZN4core5slice14from_raw_parts17h4a22de26e78c3c1fE:
	.cfi_startproc
	subq	$32, %rsp
	.cfi_def_cfa_offset 40
	movq	%rdi, 16(%rsp)
	movq	%rsi, 24(%rsp)
	movq	16(%rsp), %rsi
	movq	24(%rsp), %rdi
	movq	%rsi, (%rsp)
	movq	%rdi, 8(%rsp)
	movq	(%rsp), %rax
	movq	8(%rsp), %rdx
	addq	$32, %rsp
	.cfi_def_cfa_offset 8
	retq
.Lfunc_end188:
	.size	_ZN4core5slice14from_raw_parts17h4a22de26e78c3c1fE, .Lfunc_end188-_ZN4core5slice14from_raw_parts17h4a22de26e78c3c1fE
	.cfi_endproc

	.section	.text._ZN4core5slice18from_raw_parts_mut17h88cefd6264899dedE,"ax",@progbits
	.p2align	4, 0x90
	.type	_ZN4core5slice18from_raw_parts_mut17h88cefd6264899dedE,@function
_ZN4core5slice18from_raw_parts_mut17h88cefd6264899dedE:
	.cfi_startproc
	subq	$32, %rsp
	.cfi_def_cfa_offset 40
	movq	%rdi, 16(%rsp)
	movq	%rsi, 24(%rsp)
	movq	16(%rsp), %rsi
	movq	24(%rsp), %rdi
	movq	%rsi, (%rsp)
	movq	%rdi, 8(%rsp)
	movq	(%rsp), %rax
	movq	8(%rsp), %rdx
	addq	$32, %rsp
	.cfi_def_cfa_offset 8
	retq
.Lfunc_end189:
	.size	_ZN4core5slice18from_raw_parts_mut17h88cefd6264899dedE, .Lfunc_end189-_ZN4core5slice18from_raw_parts_mut17h88cefd6264899dedE
	.cfi_endproc

	.section	.text._ZN4core5slice18from_raw_parts_mut17haf9149dc0195a4a5E,"ax",@progbits
	.p2align	4, 0x90
	.type	_ZN4core5slice18from_raw_parts_mut17haf9149dc0195a4a5E,@function
_ZN4core5slice18from_raw_parts_mut17haf9149dc0195a4a5E:
	.cfi_startproc
	subq	$32, %rsp
	.cfi_def_cfa_offset 40
	movq	%rdi, 16(%rsp)
	movq	%rsi, 24(%rsp)
	movq	16(%rsp), %rsi
	movq	24(%rsp), %rdi
	movq	%rsi, (%rsp)
	movq	%rdi, 8(%rsp)
	movq	(%rsp), %rax
	movq	8(%rsp), %rdx
	addq	$32, %rsp
	.cfi_def_cfa_offset 8
	retq
.Lfunc_end190:
	.size	_ZN4core5slice18from_raw_parts_mut17haf9149dc0195a4a5E, .Lfunc_end190-_ZN4core5slice18from_raw_parts_mut17haf9149dc0195a4a5E
	.cfi_endproc

	.section	".text._ZN4core5slice29_$LT$impl$u20$$u5b$T$u5d$$GT$10as_mut_ptr17h849939c9d7044990E","ax",@progbits
	.p2align	4, 0x90
	.type	_ZN4core5slice29_$LT$impl$u20$$u5b$T$u5d$$GT$10as_mut_ptr17h849939c9d7044990E,@function
_ZN4core5slice29_$LT$impl$u20$$u5b$T$u5d$$GT$10as_mut_ptr17h849939c9d7044990E:
	.cfi_startproc
	pushq	%rax
	.cfi_def_cfa_offset 16
	movq	%rdi, %rax
	movq	%rsi, (%rsp)
	popq	%rcx
	.cfi_def_cfa_offset 8
	retq
.Lfunc_end191:
	.size	_ZN4core5slice29_$LT$impl$u20$$u5b$T$u5d$$GT$10as_mut_ptr17h849939c9d7044990E, .Lfunc_end191-_ZN4core5slice29_$LT$impl$u20$$u5b$T$u5d$$GT$10as_mut_ptr17h849939c9d7044990E
	.cfi_endproc

	.section	".text._ZN4core5slice29_$LT$impl$u20$$u5b$T$u5d$$GT$10as_mut_ptr17hb3692b4b34bed408E","ax",@progbits
	.p2align	4, 0x90
	.type	_ZN4core5slice29_$LT$impl$u20$$u5b$T$u5d$$GT$10as_mut_ptr17hb3692b4b34bed408E,@function
_ZN4core5slice29_$LT$impl$u20$$u5b$T$u5d$$GT$10as_mut_ptr17hb3692b4b34bed408E:
	.cfi_startproc
	pushq	%rax
	.cfi_def_cfa_offset 16
	movq	%rdi, %rax
	movq	%rsi, (%rsp)
	popq	%rcx
	.cfi_def_cfa_offset 8
	retq
.Lfunc_end192:
	.size	_ZN4core5slice29_$LT$impl$u20$$u5b$T$u5d$$GT$10as_mut_ptr17hb3692b4b34bed408E, .Lfunc_end192-_ZN4core5slice29_$LT$impl$u20$$u5b$T$u5d$$GT$10as_mut_ptr17hb3692b4b34bed408E
	.cfi_endproc

	.section	".text._ZN4core5slice29_$LT$impl$u20$$u5b$T$u5d$$GT$3len17hd0933ec0973cbecbE","ax",@progbits
	.p2align	4, 0x90
	.type	_ZN4core5slice29_$LT$impl$u20$$u5b$T$u5d$$GT$3len17hd0933ec0973cbecbE,@function
_ZN4core5slice29_$LT$impl$u20$$u5b$T$u5d$$GT$3len17hd0933ec0973cbecbE:
	.cfi_startproc
	subq	$16, %rsp
	.cfi_def_cfa_offset 24
	movq	%rdi, (%rsp)
	movq	%rsi, 8(%rsp)
	movq	8(%rsp), %rax
	addq	$16, %rsp
	.cfi_def_cfa_offset 8
	retq
.Lfunc_end193:
	.size	_ZN4core5slice29_$LT$impl$u20$$u5b$T$u5d$$GT$3len17hd0933ec0973cbecbE, .Lfunc_end193-_ZN4core5slice29_$LT$impl$u20$$u5b$T$u5d$$GT$3len17hd0933ec0973cbecbE
	.cfi_endproc

	.section	".text._ZN4core5slice29_$LT$impl$u20$$u5b$T$u5d$$GT$3len17hf5a82c2860298721E","ax",@progbits
	.p2align	4, 0x90
	.type	_ZN4core5slice29_$LT$impl$u20$$u5b$T$u5d$$GT$3len17hf5a82c2860298721E,@function
_ZN4core5slice29_$LT$impl$u20$$u5b$T$u5d$$GT$3len17hf5a82c2860298721E:
	.cfi_startproc
	subq	$16, %rsp
	.cfi_def_cfa_offset 24
	movq	%rdi, (%rsp)
	movq	%rsi, 8(%rsp)
	movq	8(%rsp), %rax
	addq	$16, %rsp
	.cfi_def_cfa_offset 8
	retq
.Lfunc_end194:
	.size	_ZN4core5slice29_$LT$impl$u20$$u5b$T$u5d$$GT$3len17hf5a82c2860298721E, .Lfunc_end194-_ZN4core5slice29_$LT$impl$u20$$u5b$T$u5d$$GT$3len17hf5a82c2860298721E
	.cfi_endproc

	.section	".text._ZN4core5slice29_$LT$impl$u20$$u5b$T$u5d$$GT$4iter17hebc81bceef96061dE","ax",@progbits
	.p2align	4, 0x90
	.type	_ZN4core5slice29_$LT$impl$u20$$u5b$T$u5d$$GT$4iter17hebc81bceef96061dE,@function
_ZN4core5slice29_$LT$impl$u20$$u5b$T$u5d$$GT$4iter17hebc81bceef96061dE:
	.cfi_startproc
	subq	$104, %rsp
	.cfi_def_cfa_offset 112
	movq	%rdi, 64(%rsp)
	movq	%rsi, 56(%rsp)
	callq	_ZN4core5slice29_$LT$impl$u20$$u5b$T$u5d$$GT$6as_ptr17h013d4acc16904f2dE
	movq	%rax, 48(%rsp)
	movq	48(%rsp), %rdi
	callq	_ZN4core3ptr33_$LT$impl$u20$$BP$const$u20$T$GT$7is_null17h23aba0d771b3076fE
	movb	%al, 47(%rsp)
	callq	_ZN4core3mem7size_of17h03b5324af02046fdE
	movq	%rax, 32(%rsp)
	movq	32(%rsp), %rax
	cmpq	$0, %rax
	jne	.LBB195_6
	movq	64(%rsp), %rdi
	movq	56(%rsp), %rsi
	callq	_ZN4core5slice29_$LT$impl$u20$$u5b$T$u5d$$GT$3len17hd0933ec0973cbecbE
	movq	%rax, 24(%rsp)
	jmp	.LBB195_7
.LBB195_6:
	movq	64(%rsp), %rdi
	movq	56(%rsp), %rsi
	callq	_ZN4core5slice29_$LT$impl$u20$$u5b$T$u5d$$GT$3len17hd0933ec0973cbecbE
	movq	%rax, 16(%rsp)
	jmp	.LBB195_9
.LBB195_7:
	movq	48(%rsp), %rdi
	movq	24(%rsp), %rsi
	callq	_ZN4core3ptr33_$LT$impl$u20$$BP$const$u20$T$GT$12wrapping_add17hfb2ca2e549ba43a7E
	movq	%rax, 8(%rsp)
	movq	8(%rsp), %rax
	movq	%rax, 88(%rsp)
	jmp	.LBB195_11
.LBB195_9:
	movq	48(%rsp), %rdi
	movq	16(%rsp), %rsi
	callq	_ZN4core3ptr33_$LT$impl$u20$$BP$const$u20$T$GT$3add17h80c6d38553969b52E
	movq	%rax, 88(%rsp)
	jmp	.LBB195_11
.LBB195_11:
	movq	88(%rsp), %rax
	movq	48(%rsp), %rcx
	movq	%rcx, 72(%rsp)
	movq	%rax, 80(%rsp)
	movq	72(%rsp), %rax
	movq	80(%rsp), %rdx
	addq	$104, %rsp
	.cfi_def_cfa_offset 8
	retq
.Lfunc_end195:
	.size	_ZN4core5slice29_$LT$impl$u20$$u5b$T$u5d$$GT$4iter17hebc81bceef96061dE, .Lfunc_end195-_ZN4core5slice29_$LT$impl$u20$$u5b$T$u5d$$GT$4iter17hebc81bceef96061dE
	.cfi_endproc

	.section	".text._ZN4core5slice29_$LT$impl$u20$$u5b$T$u5d$$GT$4iter17hf5b263d7b048cc0fE","ax",@progbits
	.p2align	4, 0x90
	.type	_ZN4core5slice29_$LT$impl$u20$$u5b$T$u5d$$GT$4iter17hf5b263d7b048cc0fE,@function
_ZN4core5slice29_$LT$impl$u20$$u5b$T$u5d$$GT$4iter17hf5b263d7b048cc0fE:
	.cfi_startproc
	subq	$104, %rsp
	.cfi_def_cfa_offset 112
	movq	%rdi, 64(%rsp)
	movq	%rsi, 56(%rsp)
	callq	_ZN4core5slice29_$LT$impl$u20$$u5b$T$u5d$$GT$6as_ptr17h80cc894a4e877a41E
	movq	%rax, 48(%rsp)
	movq	48(%rsp), %rdi
	callq	_ZN4core3ptr33_$LT$impl$u20$$BP$const$u20$T$GT$7is_null17hc4affb6a076738baE
	movb	%al, 47(%rsp)
	callq	_ZN4core3mem7size_of17h436ecd71989f1da2E
	movq	%rax, 32(%rsp)
	movq	32(%rsp), %rax
	cmpq	$0, %rax
	jne	.LBB196_6
	movq	48(%rsp), %rax
	movq	64(%rsp), %rdi
	movq	56(%rsp), %rsi
	movq	%rax, 24(%rsp)
	callq	_ZN4core5slice29_$LT$impl$u20$$u5b$T$u5d$$GT$3len17hf5a82c2860298721E
	movq	%rax, 16(%rsp)
	jmp	.LBB196_7
.LBB196_6:
	movq	64(%rsp), %rdi
	movq	56(%rsp), %rsi
	callq	_ZN4core5slice29_$LT$impl$u20$$u5b$T$u5d$$GT$3len17hf5a82c2860298721E
	movq	%rax, 8(%rsp)
	jmp	.LBB196_9
.LBB196_7:
	movq	24(%rsp), %rdi
	movq	16(%rsp), %rsi
	callq	_ZN4core3ptr33_$LT$impl$u20$$BP$const$u20$T$GT$12wrapping_add17hfb2ca2e549ba43a7E
	movq	%rax, (%rsp)
	movq	(%rsp), %rax
	movq	%rax, 88(%rsp)
	jmp	.LBB196_11
.LBB196_9:
	movq	48(%rsp), %rdi
	movq	8(%rsp), %rsi
	callq	_ZN4core3ptr33_$LT$impl$u20$$BP$const$u20$T$GT$3add17hb87992c1ddea1b32E
	movq	%rax, 88(%rsp)
	jmp	.LBB196_11
.LBB196_11:
	movq	88(%rsp), %rax
	movq	48(%rsp), %rcx
	movq	%rcx, 72(%rsp)
	movq	%rax, 80(%rsp)
	movq	72(%rsp), %rax
	movq	80(%rsp), %rdx
	addq	$104, %rsp
	.cfi_def_cfa_offset 8
	retq
.Lfunc_end196:
	.size	_ZN4core5slice29_$LT$impl$u20$$u5b$T$u5d$$GT$4iter17hf5b263d7b048cc0fE, .Lfunc_end196-_ZN4core5slice29_$LT$impl$u20$$u5b$T$u5d$$GT$4iter17hf5b263d7b048cc0fE
	.cfi_endproc

	.section	".text._ZN4core5slice29_$LT$impl$u20$$u5b$T$u5d$$GT$4swap17hcc00dc081d99dcb1E","ax",@progbits
	.p2align	4, 0x90
	.type	_ZN4core5slice29_$LT$impl$u20$$u5b$T$u5d$$GT$4swap17hcc00dc081d99dcb1E,@function
_ZN4core5slice29_$LT$impl$u20$$u5b$T$u5d$$GT$4swap17hcc00dc081d99dcb1E:
	.cfi_startproc
	subq	$40, %rsp
	.cfi_def_cfa_offset 48
	cmpq	%rsi, %rdx
	setb	%al
	testb	$1, %al
	movq	%rdi, 32(%rsp)
	movq	%rsi, 24(%rsp)
	movq	%rdx, 16(%rsp)
	movq	%rcx, 8(%rsp)
	jne	.LBB197_1
	jmp	.LBB197_4
.LBB197_1:
	movq	32(%rsp), %rax
	movq	16(%rsp), %rcx
	addq	%rcx, %rax
	movq	8(%rsp), %rdx
	movq	24(%rsp), %rsi
	cmpq	%rsi, %rdx
	setb	%dil
	testb	$1, %dil
	movq	%rax, (%rsp)
	jne	.LBB197_2
	jmp	.LBB197_5
.LBB197_2:
	movq	32(%rsp), %rax
	movq	8(%rsp), %rcx
	addq	%rcx, %rax
	movq	(%rsp), %rdi
	movq	%rax, %rsi
	callq	_ZN4core3ptr4swap17h08d020aea7d39853E
	addq	$40, %rsp
	.cfi_def_cfa_offset 8
	retq
.LBB197_4:
	.cfi_def_cfa_offset 48
	leaq	.L__unnamed_6(%rip), %rdi
	movq	_ZN4core9panicking18panic_bounds_check17h34b80e64d41db052E@GOTPCREL(%rip), %rax
	movq	16(%rsp), %rsi
	movq	24(%rsp), %rdx
	callq	*%rax
	ud2
.LBB197_5:
	leaq	.L__unnamed_7(%rip), %rdi
	movq	_ZN4core9panicking18panic_bounds_check17h34b80e64d41db052E@GOTPCREL(%rip), %rax
	movq	8(%rsp), %rsi
	movq	24(%rsp), %rdx
	callq	*%rax
	ud2
.Lfunc_end197:
	.size	_ZN4core5slice29_$LT$impl$u20$$u5b$T$u5d$$GT$4swap17hcc00dc081d99dcb1E, .Lfunc_end197-_ZN4core5slice29_$LT$impl$u20$$u5b$T$u5d$$GT$4swap17hcc00dc081d99dcb1E
	.cfi_endproc

	.section	".text._ZN4core5slice29_$LT$impl$u20$$u5b$T$u5d$$GT$6as_ptr17h013d4acc16904f2dE","ax",@progbits
	.p2align	4, 0x90
	.type	_ZN4core5slice29_$LT$impl$u20$$u5b$T$u5d$$GT$6as_ptr17h013d4acc16904f2dE,@function
_ZN4core5slice29_$LT$impl$u20$$u5b$T$u5d$$GT$6as_ptr17h013d4acc16904f2dE:
	.cfi_startproc
	pushq	%rax
	.cfi_def_cfa_offset 16
	movq	%rdi, %rax
	movq	%rsi, (%rsp)
	popq	%rcx
	.cfi_def_cfa_offset 8
	retq
.Lfunc_end198:
	.size	_ZN4core5slice29_$LT$impl$u20$$u5b$T$u5d$$GT$6as_ptr17h013d4acc16904f2dE, .Lfunc_end198-_ZN4core5slice29_$LT$impl$u20$$u5b$T$u5d$$GT$6as_ptr17h013d4acc16904f2dE
	.cfi_endproc

	.section	".text._ZN4core5slice29_$LT$impl$u20$$u5b$T$u5d$$GT$6as_ptr17h80cc894a4e877a41E","ax",@progbits
	.p2align	4, 0x90
	.type	_ZN4core5slice29_$LT$impl$u20$$u5b$T$u5d$$GT$6as_ptr17h80cc894a4e877a41E,@function
_ZN4core5slice29_$LT$impl$u20$$u5b$T$u5d$$GT$6as_ptr17h80cc894a4e877a41E:
	.cfi_startproc
	pushq	%rax
	.cfi_def_cfa_offset 16
	movq	%rdi, %rax
	movq	%rsi, (%rsp)
	popq	%rcx
	.cfi_def_cfa_offset 8
	retq
.Lfunc_end199:
	.size	_ZN4core5slice29_$LT$impl$u20$$u5b$T$u5d$$GT$6as_ptr17h80cc894a4e877a41E, .Lfunc_end199-_ZN4core5slice29_$LT$impl$u20$$u5b$T$u5d$$GT$6as_ptr17h80cc894a4e877a41E
	.cfi_endproc

	.section	".text._ZN4core5slice77_$LT$impl$u20$core..ops..index..IndexMut$LT$I$GT$$u20$for$u20$$u5b$T$u5d$$GT$9index_mut17h551d08d553915bf5E","ax",@progbits
	.p2align	4, 0x90
	.type	_ZN4core5slice77_$LT$impl$u20$core..ops..index..IndexMut$LT$I$GT$$u20$for$u20$$u5b$T$u5d$$GT$9index_mut17h551d08d553915bf5E,@function
_ZN4core5slice77_$LT$impl$u20$core..ops..index..IndexMut$LT$I$GT$$u20$for$u20$$u5b$T$u5d$$GT$9index_mut17h551d08d553915bf5E:
	.cfi_startproc
	subq	$24, %rsp
	.cfi_def_cfa_offset 32
	callq	_ZN90_$LT$core..ops..range..RangeFull$u20$as$u20$core..slice..SliceIndex$LT$$u5b$T$u5d$$GT$$GT$9index_mut17h9a4e6139049b1004E
	movq	%rax, 16(%rsp)
	movq	%rdx, 8(%rsp)
	movq	16(%rsp), %rax
	movq	8(%rsp), %rdx
	addq	$24, %rsp
	.cfi_def_cfa_offset 8
	retq
.Lfunc_end200:
	.size	_ZN4core5slice77_$LT$impl$u20$core..ops..index..IndexMut$LT$I$GT$$u20$for$u20$$u5b$T$u5d$$GT$9index_mut17h551d08d553915bf5E, .Lfunc_end200-_ZN4core5slice77_$LT$impl$u20$core..ops..index..IndexMut$LT$I$GT$$u20$for$u20$$u5b$T$u5d$$GT$9index_mut17h551d08d553915bf5E
	.cfi_endproc

	.section	".text._ZN4core5slice77_$LT$impl$u20$core..ops..index..IndexMut$LT$I$GT$$u20$for$u20$$u5b$T$u5d$$GT$9index_mut17h62889e2e301a9820E","ax",@progbits
	.p2align	4, 0x90
	.type	_ZN4core5slice77_$LT$impl$u20$core..ops..index..IndexMut$LT$I$GT$$u20$for$u20$$u5b$T$u5d$$GT$9index_mut17h62889e2e301a9820E,@function
_ZN4core5slice77_$LT$impl$u20$core..ops..index..IndexMut$LT$I$GT$$u20$for$u20$$u5b$T$u5d$$GT$9index_mut17h62889e2e301a9820E:
	.cfi_startproc
	subq	$24, %rsp
	.cfi_def_cfa_offset 32
	callq	_ZN90_$LT$core..ops..range..RangeFull$u20$as$u20$core..slice..SliceIndex$LT$$u5b$T$u5d$$GT$$GT$9index_mut17h7c6c164a08fe5b34E
	movq	%rax, 16(%rsp)
	movq	%rdx, 8(%rsp)
	movq	16(%rsp), %rax
	movq	8(%rsp), %rdx
	addq	$24, %rsp
	.cfi_def_cfa_offset 8
	retq
.Lfunc_end201:
	.size	_ZN4core5slice77_$LT$impl$u20$core..ops..index..IndexMut$LT$I$GT$$u20$for$u20$$u5b$T$u5d$$GT$9index_mut17h62889e2e301a9820E, .Lfunc_end201-_ZN4core5slice77_$LT$impl$u20$core..ops..index..IndexMut$LT$I$GT$$u20$for$u20$$u5b$T$u5d$$GT$9index_mut17h62889e2e301a9820E
	.cfi_endproc

	.section	".text._ZN4core5tuple69_$LT$impl$u20$core..cmp..PartialEq$u20$for$u20$$LP$A$C$$u20$B$RP$$GT$2eq17haf09aceb835982e3E","ax",@progbits
	.p2align	4, 0x90
	.type	_ZN4core5tuple69_$LT$impl$u20$core..cmp..PartialEq$u20$for$u20$$LP$A$C$$u20$B$RP$$GT$2eq17haf09aceb835982e3E,@function
_ZN4core5tuple69_$LT$impl$u20$core..cmp..PartialEq$u20$for$u20$$LP$A$C$$u20$B$RP$$GT$2eq17haf09aceb835982e3E:
	.cfi_startproc
	subq	$40, %rsp
	.cfi_def_cfa_offset 48
	movq	%rdi, %rax
	movq	%rsi, %rcx
	movq	%rdi, 24(%rsp)
	movq	%rax, %rdi
	movq	%rsi, 16(%rsp)
	movq	%rcx, %rsi
	callq	_ZN4core3cmp5impls55_$LT$impl$u20$core..cmp..PartialEq$u20$for$u20$bool$GT$2eq17hb414968b06a56758E
	movb	%al, 15(%rsp)
	jmp	.LBB202_4
.LBB202_1:
	movb	$0, 39(%rsp)
	jmp	.LBB202_3
.LBB202_2:
	movq	24(%rsp), %rax
	addq	$1, %rax
	movq	16(%rsp), %rcx
	addq	$1, %rcx
	movq	%rax, %rdi
	movq	%rcx, %rsi
	callq	_ZN4core3cmp5impls55_$LT$impl$u20$core..cmp..PartialEq$u20$for$u20$bool$GT$2eq17hb414968b06a56758E
	movb	%al, 14(%rsp)
	jmp	.LBB202_5
.LBB202_3:
	movb	39(%rsp), %al
	andb	$1, %al
	movzbl	%al, %eax
	addq	$40, %rsp
	.cfi_def_cfa_offset 8
	retq
.LBB202_4:
	.cfi_def_cfa_offset 48
	movb	15(%rsp), %al
	testb	$1, %al
	jne	.LBB202_2
	jmp	.LBB202_1
.LBB202_5:
	movb	14(%rsp), %al
	andb	$1, %al
	movb	%al, 39(%rsp)
	jmp	.LBB202_3
.Lfunc_end202:
	.size	_ZN4core5tuple69_$LT$impl$u20$core..cmp..PartialEq$u20$for$u20$$LP$A$C$$u20$B$RP$$GT$2eq17haf09aceb835982e3E, .Lfunc_end202-_ZN4core5tuple69_$LT$impl$u20$core..cmp..PartialEq$u20$for$u20$$LP$A$C$$u20$B$RP$$GT$2eq17haf09aceb835982e3E
	.cfi_endproc

	.section	.text._ZN4core6result13unwrap_failed17h2a4b6d47efa6f99eE,"ax",@progbits
	.p2align	4, 0x90
	.type	_ZN4core6result13unwrap_failed17h2a4b6d47efa6f99eE,@function
_ZN4core6result13unwrap_failed17h2a4b6d47efa6f99eE:
.Lfunc_begin23:
	.cfi_startproc
	.cfi_personality 155, DW.ref.rust_eh_personality
	.cfi_lsda 27, .Lexception23
	subq	$200, %rsp
	.cfi_def_cfa_offset 208
	movq	%rdi, 64(%rsp)
	movq	%rsi, 72(%rsp)
	leaq	64(%rsp), %rsi
	movq	%rsi, 168(%rsp)
	leaq	80(%rsp), %rsi
	movq	%rsi, 176(%rsp)
	movq	168(%rsp), %rdi
	movq	176(%rsp), %rsi
.Ltmp142:
	leaq	_ZN44_$LT$$RF$T$u20$as$u20$core..fmt..Display$GT$3fmt17h84154d96b4e9b5fcE(%rip), %rax
	movq	%rsi, 56(%rsp)
	movq	%rax, %rsi
	callq	_ZN4core3fmt10ArgumentV13new17h45614ca26c3e0e7cE
.Ltmp143:
	movq	%rdx, 48(%rsp)
	movq	%rax, 40(%rsp)
	jmp	.LBB203_2
.LBB203_1:
	movq	184(%rsp), %rdi
	callq	_Unwind_Resume@PLT
	ud2
.LBB203_2:
	movq	40(%rsp), %rax
	movq	48(%rsp), %rcx
.Ltmp144:
	movq	_ZN59_$LT$core..alloc..LayoutErr$u20$as$u20$core..fmt..Debug$GT$3fmt17h2b5f9226ba3c8597E@GOTPCREL(%rip), %rsi
	movq	56(%rsp), %rdi
	movq	%rax, 32(%rsp)
	movq	%rcx, 24(%rsp)
	callq	_ZN4core3fmt10ArgumentV13new17h9162587ba6c678f6E
.Ltmp145:
	movq	%rdx, 16(%rsp)
	movq	%rax, 8(%rsp)
	jmp	.LBB203_4
.LBB203_3:
	jmp	.LBB203_1
.LBB203_4:
	movq	32(%rsp), %rax
	movq	%rax, 136(%rsp)
	movq	24(%rsp), %rcx
	movq	%rcx, 144(%rsp)
	movq	8(%rsp), %rdx
	movq	%rdx, 152(%rsp)
	movq	16(%rsp), %rsi
	movq	%rsi, 160(%rsp)
.Ltmp146:
	movq	%rsp, %rdi
	movq	$2, (%rdi)
	leaq	.L__unnamed_8(%rip), %rsi
	leaq	.L__unnamed_9(%rip), %r9
	leaq	88(%rsp), %rdi
	leaq	136(%rsp), %rcx
	movl	$2, %r8d
	movq	%r8, %rdx
	callq	_ZN4core3fmt9Arguments16new_v1_formatted17ha64219216ef84a84E
.Ltmp147:
	jmp	.LBB203_5
.LBB203_5:
.Ltmp148:
	leaq	.L__unnamed_10(%rip), %rsi
	movq	_ZN4core9panicking9panic_fmt17h74ee8034b317ceedE@GOTPCREL(%rip), %rax
	leaq	88(%rsp), %rdi
	callq	*%rax
.Ltmp149:
	jmp	.LBB203_7
.LBB203_6:
.Ltmp150:
	movl	%edx, %ecx
	movq	%rax, 184(%rsp)
	movl	%ecx, 192(%rsp)
	jmp	.LBB203_3
.LBB203_7:
	ud2
.Lfunc_end203:
	.size	_ZN4core6result13unwrap_failed17h2a4b6d47efa6f99eE, .Lfunc_end203-_ZN4core6result13unwrap_failed17h2a4b6d47efa6f99eE
	.cfi_endproc
	.section	.gcc_except_table,"a",@progbits
	.p2align	2
GCC_except_table203:
.Lexception23:
	.byte	255
	.byte	255
	.byte	1
	.uleb128 .Lcst_end23-.Lcst_begin23
.Lcst_begin23:
	.uleb128 .Ltmp142-.Lfunc_begin23
	.uleb128 .Ltmp143-.Ltmp142
	.uleb128 .Ltmp150-.Lfunc_begin23
	.byte	0
	.uleb128 .Ltmp143-.Lfunc_begin23
	.uleb128 .Ltmp144-.Ltmp143
	.byte	0
	.byte	0
	.uleb128 .Ltmp144-.Lfunc_begin23
	.uleb128 .Ltmp149-.Ltmp144
	.uleb128 .Ltmp150-.Lfunc_begin23
	.byte	0
.Lcst_end23:
	.p2align	2

	.section	".text._ZN50_$LT$T$u20$as$u20$core..convert..From$LT$T$GT$$GT$4from17h5a19c94bb2dd3397E","ax",@progbits
	.p2align	4, 0x90
	.type	_ZN50_$LT$T$u20$as$u20$core..convert..From$LT$T$GT$$GT$4from17h5a19c94bb2dd3397E,@function
_ZN50_$LT$T$u20$as$u20$core..convert..From$LT$T$GT$$GT$4from17h5a19c94bb2dd3397E:
	.cfi_startproc
	movb	%dil, %al
	andb	$1, %al
	movzbl	%al, %eax
	retq
.Lfunc_end204:
	.size	_ZN50_$LT$T$u20$as$u20$core..convert..From$LT$T$GT$$GT$4from17h5a19c94bb2dd3397E, .Lfunc_end204-_ZN50_$LT$T$u20$as$u20$core..convert..From$LT$T$GT$$GT$4from17h5a19c94bb2dd3397E
	.cfi_endproc

	.section	".text._ZN50_$LT$T$u20$as$u20$core..convert..From$LT$T$GT$$GT$4from17h5b169dbeff8a7021E","ax",@progbits
	.p2align	4, 0x90
	.type	_ZN50_$LT$T$u20$as$u20$core..convert..From$LT$T$GT$$GT$4from17h5b169dbeff8a7021E,@function
_ZN50_$LT$T$u20$as$u20$core..convert..From$LT$T$GT$$GT$4from17h5b169dbeff8a7021E:
	.cfi_startproc
	retq
.Lfunc_end205:
	.size	_ZN50_$LT$T$u20$as$u20$core..convert..From$LT$T$GT$$GT$4from17h5b169dbeff8a7021E, .Lfunc_end205-_ZN50_$LT$T$u20$as$u20$core..convert..From$LT$T$GT$$GT$4from17h5b169dbeff8a7021E
	.cfi_endproc

	.section	".text._ZN50_$LT$T$u20$as$u20$core..convert..From$LT$T$GT$$GT$4from17he2d2555e9c12ddf3E","ax",@progbits
	.p2align	4, 0x90
	.type	_ZN50_$LT$T$u20$as$u20$core..convert..From$LT$T$GT$$GT$4from17he2d2555e9c12ddf3E,@function
_ZN50_$LT$T$u20$as$u20$core..convert..From$LT$T$GT$$GT$4from17he2d2555e9c12ddf3E:
	.cfi_startproc
	movq	%rdi, %rax
	retq
.Lfunc_end206:
	.size	_ZN50_$LT$T$u20$as$u20$core..convert..From$LT$T$GT$$GT$4from17he2d2555e9c12ddf3E, .Lfunc_end206-_ZN50_$LT$T$u20$as$u20$core..convert..From$LT$T$GT$$GT$4from17he2d2555e9c12ddf3E
	.cfi_endproc

	.section	".text._ZN50_$LT$T$u20$as$u20$core..convert..Into$LT$U$GT$$GT$4into17h315c8f0c101f62d5E","ax",@progbits
	.p2align	4, 0x90
	.type	_ZN50_$LT$T$u20$as$u20$core..convert..Into$LT$U$GT$$GT$4into17h315c8f0c101f62d5E,@function
_ZN50_$LT$T$u20$as$u20$core..convert..Into$LT$U$GT$$GT$4into17h315c8f0c101f62d5E:
	.cfi_startproc
	pushq	%rax
	.cfi_def_cfa_offset 16
	callq	_ZN101_$LT$core..ptr..Unique$LT$T$GT$$u20$as$u20$core..convert..From$LT$core..ptr..NonNull$LT$T$GT$$GT$$GT$4from17hc5827c14e1a87922E
	movq	%rax, (%rsp)
	movq	(%rsp), %rax
	popq	%rcx
	.cfi_def_cfa_offset 8
	retq
.Lfunc_end207:
	.size	_ZN50_$LT$T$u20$as$u20$core..convert..Into$LT$U$GT$$GT$4into17h315c8f0c101f62d5E, .Lfunc_end207-_ZN50_$LT$T$u20$as$u20$core..convert..Into$LT$U$GT$$GT$4into17h315c8f0c101f62d5E
	.cfi_endproc

	.section	".text._ZN50_$LT$T$u20$as$u20$core..convert..Into$LT$U$GT$$GT$4into17h3a220d6ec0e5eb69E","ax",@progbits
	.p2align	4, 0x90
	.type	_ZN50_$LT$T$u20$as$u20$core..convert..Into$LT$U$GT$$GT$4into17h3a220d6ec0e5eb69E,@function
_ZN50_$LT$T$u20$as$u20$core..convert..Into$LT$U$GT$$GT$4into17h3a220d6ec0e5eb69E:
	.cfi_startproc
	pushq	%rax
	.cfi_def_cfa_offset 16
	callq	_ZN101_$LT$core..ptr..Unique$LT$T$GT$$u20$as$u20$core..convert..From$LT$core..ptr..NonNull$LT$T$GT$$GT$$GT$4from17h625c1fa47f3066a0E
	movq	%rax, (%rsp)
	movq	(%rsp), %rax
	popq	%rcx
	.cfi_def_cfa_offset 8
	retq
.Lfunc_end208:
	.size	_ZN50_$LT$T$u20$as$u20$core..convert..Into$LT$U$GT$$GT$4into17h3a220d6ec0e5eb69E, .Lfunc_end208-_ZN50_$LT$T$u20$as$u20$core..convert..Into$LT$U$GT$$GT$4into17h3a220d6ec0e5eb69E
	.cfi_endproc

	.section	".text._ZN50_$LT$T$u20$as$u20$core..convert..Into$LT$U$GT$$GT$4into17hbd0a34baa2f7767eE","ax",@progbits
	.p2align	4, 0x90
	.type	_ZN50_$LT$T$u20$as$u20$core..convert..Into$LT$U$GT$$GT$4into17hbd0a34baa2f7767eE,@function
_ZN50_$LT$T$u20$as$u20$core..convert..Into$LT$U$GT$$GT$4into17hbd0a34baa2f7767eE:
	.cfi_startproc
	subq	$24, %rsp
	.cfi_def_cfa_offset 32
	callq	_ZN101_$LT$core..ptr..NonNull$LT$T$GT$$u20$as$u20$core..convert..From$LT$core..ptr..Unique$LT$T$GT$$GT$$GT$4from17h7fe63cb9140ba72bE
	movq	%rax, 16(%rsp)
	movq	%rdx, 8(%rsp)
	movq	16(%rsp), %rax
	movq	8(%rsp), %rdx
	addq	$24, %rsp
	.cfi_def_cfa_offset 8
	retq
.Lfunc_end209:
	.size	_ZN50_$LT$T$u20$as$u20$core..convert..Into$LT$U$GT$$GT$4into17hbd0a34baa2f7767eE, .Lfunc_end209-_ZN50_$LT$T$u20$as$u20$core..convert..Into$LT$U$GT$$GT$4into17hbd0a34baa2f7767eE
	.cfi_endproc

	.section	".text._ZN53_$LT$T$u20$as$u20$core..convert..TryFrom$LT$U$GT$$GT$8try_from17h4f97eccc21cd165fE","ax",@progbits
	.p2align	4, 0x90
	.type	_ZN53_$LT$T$u20$as$u20$core..convert..TryFrom$LT$U$GT$$GT$8try_from17h4f97eccc21cd165fE,@function
_ZN53_$LT$T$u20$as$u20$core..convert..TryFrom$LT$U$GT$$GT$8try_from17h4f97eccc21cd165fE:
	.cfi_startproc
	subq	$24, %rsp
	.cfi_def_cfa_offset 32
	callq	_ZN50_$LT$T$u20$as$u20$core..convert..From$LT$T$GT$$GT$4from17he2d2555e9c12ddf3E
	movq	%rax, 8(%rsp)
	movq	8(%rsp), %rax
	movq	%rax, 16(%rsp)
	movq	16(%rsp), %rax
	addq	$24, %rsp
	.cfi_def_cfa_offset 8
	retq
.Lfunc_end210:
	.size	_ZN53_$LT$T$u20$as$u20$core..convert..TryFrom$LT$U$GT$$GT$8try_from17h4f97eccc21cd165fE, .Lfunc_end210-_ZN53_$LT$T$u20$as$u20$core..convert..TryFrom$LT$U$GT$$GT$8try_from17h4f97eccc21cd165fE
	.cfi_endproc

	.section	".text._ZN54_$LT$$LP$$RP$$u20$as$u20$std..process..Termination$GT$6report17h5f940ac8b66f7b39E","ax",@progbits
	.p2align	4, 0x90
	.type	_ZN54_$LT$$LP$$RP$$u20$as$u20$std..process..Termination$GT$6report17h5f940ac8b66f7b39E,@function
_ZN54_$LT$$LP$$RP$$u20$as$u20$std..process..Termination$GT$6report17h5f940ac8b66f7b39E:
	.cfi_startproc
	pushq	%rax
	.cfi_def_cfa_offset 16
	xorl	%edi, %edi
	callq	_ZN68_$LT$std..process..ExitCode$u20$as$u20$std..process..Termination$GT$6report17h7a23b616bb26279aE
	movl	%eax, 4(%rsp)
	movl	4(%rsp), %eax
	popq	%rcx
	.cfi_def_cfa_offset 8
	retq
.Lfunc_end211:
	.size	_ZN54_$LT$$LP$$RP$$u20$as$u20$std..process..Termination$GT$6report17h5f940ac8b66f7b39E, .Lfunc_end211-_ZN54_$LT$$LP$$RP$$u20$as$u20$std..process..Termination$GT$6report17h5f940ac8b66f7b39E
	.cfi_endproc

	.section	".text._ZN54_$LT$I$u20$as$u20$core..iter..traits..IntoIterator$GT$9into_iter17h0e9fec015d95c612E","ax",@progbits
	.p2align	4, 0x90
	.type	_ZN54_$LT$I$u20$as$u20$core..iter..traits..IntoIterator$GT$9into_iter17h0e9fec015d95c612E,@function
_ZN54_$LT$I$u20$as$u20$core..iter..traits..IntoIterator$GT$9into_iter17h0e9fec015d95c612E:
	.cfi_startproc
	movq	%rdi, %rax
	movq	%rsi, %rdx
	retq
.Lfunc_end212:
	.size	_ZN54_$LT$I$u20$as$u20$core..iter..traits..IntoIterator$GT$9into_iter17h0e9fec015d95c612E, .Lfunc_end212-_ZN54_$LT$I$u20$as$u20$core..iter..traits..IntoIterator$GT$9into_iter17h0e9fec015d95c612E
	.cfi_endproc

	.section	".text._ZN54_$LT$I$u20$as$u20$core..iter..traits..IntoIterator$GT$9into_iter17hdb39dad46c0df481E","ax",@progbits
	.p2align	4, 0x90
	.type	_ZN54_$LT$I$u20$as$u20$core..iter..traits..IntoIterator$GT$9into_iter17hdb39dad46c0df481E,@function
_ZN54_$LT$I$u20$as$u20$core..iter..traits..IntoIterator$GT$9into_iter17hdb39dad46c0df481E:
	.cfi_startproc
	movq	%rdi, %rax
	movq	%rsi, %rdx
	retq
.Lfunc_end213:
	.size	_ZN54_$LT$I$u20$as$u20$core..iter..traits..IntoIterator$GT$9into_iter17hdb39dad46c0df481E, .Lfunc_end213-_ZN54_$LT$I$u20$as$u20$core..iter..traits..IntoIterator$GT$9into_iter17hdb39dad46c0df481E
	.cfi_endproc

	.section	".text._ZN59_$LT$$LP$T10$C$$u20$T11$RP$$u20$as$u20$core..fmt..Debug$GT$3fmt17hd8928296a1872954E","ax",@progbits
	.p2align	4, 0x90
	.type	_ZN59_$LT$$LP$T10$C$$u20$T11$RP$$u20$as$u20$core..fmt..Debug$GT$3fmt17hd8928296a1872954E,@function
_ZN59_$LT$$LP$T10$C$$u20$T11$RP$$u20$as$u20$core..fmt..Debug$GT$3fmt17hd8928296a1872954E:
	.cfi_startproc
	subq	$72, %rsp
	.cfi_def_cfa_offset 80
	xorl	%eax, %eax
	movl	%eax, %ecx
	leaq	32(%rsp), %rdx
	movq	%rdi, 24(%rsp)
	movq	%rdx, %rdi
	leaq	.L__unnamed_11(%rip), %rdx
	callq	*_ZN4core3fmt9Formatter11debug_tuple17hf0fda861d0a3f8c2E@GOTPCREL(%rip)
	leaq	.L__unnamed_12(%rip), %rax
	movq	24(%rsp), %rcx
	movq	%rcx, 56(%rsp)
	movq	24(%rsp), %rcx
	addq	$8, %rcx
	movq	%rcx, 64(%rsp)
	leaq	56(%rsp), %rcx
	leaq	32(%rsp), %rdi
	movq	%rcx, %rsi
	movq	%rax, %rdx
	callq	*_ZN4core3fmt8builders10DebugTuple5field17h7bce38ca2a44a6d9E@GOTPCREL(%rip)
	movq	%rax, 16(%rsp)
	leaq	.L__unnamed_12(%rip), %rax
	leaq	64(%rsp), %rcx
	leaq	32(%rsp), %rdi
	movq	%rcx, %rsi
	movq	%rax, %rdx
	callq	*_ZN4core3fmt8builders10DebugTuple5field17h7bce38ca2a44a6d9E@GOTPCREL(%rip)
	movq	%rax, 8(%rsp)
	leaq	32(%rsp), %rdi
	callq	*_ZN4core3fmt8builders10DebugTuple6finish17h9b702c22df3e8f29E@GOTPCREL(%rip)
	movb	%al, 7(%rsp)
	movb	7(%rsp), %al
	andb	$1, %al
	movzbl	%al, %eax
	addq	$72, %rsp
	.cfi_def_cfa_offset 8
	retq
.Lfunc_end214:
	.size	_ZN59_$LT$$LP$T10$C$$u20$T11$RP$$u20$as$u20$core..fmt..Debug$GT$3fmt17hd8928296a1872954E, .Lfunc_end214-_ZN59_$LT$$LP$T10$C$$u20$T11$RP$$u20$as$u20$core..fmt..Debug$GT$3fmt17hd8928296a1872954E
	.cfi_endproc

	.section	".text._ZN59_$LT$alloc..alloc..Global$u20$as$u20$core..alloc..Alloc$GT$12alloc_zeroed17h5d9ccba75440635bE","ax",@progbits
	.p2align	4, 0x90
	.type	_ZN59_$LT$alloc..alloc..Global$u20$as$u20$core..alloc..Alloc$GT$12alloc_zeroed17h5d9ccba75440635bE,@function
_ZN59_$LT$alloc..alloc..Global$u20$as$u20$core..alloc..Alloc$GT$12alloc_zeroed17h5d9ccba75440635bE:
	.cfi_startproc
	subq	$40, %rsp
	.cfi_def_cfa_offset 48
	movq	%rdi, 24(%rsp)
	movq	%rsi, %rdi
	movq	%rdx, %rsi
	callq	_ZN5alloc5alloc12alloc_zeroed17h33fd5176deaef3d8E
	movq	%rax, 16(%rsp)
	movq	16(%rsp), %rdi
	callq	_ZN36_$LT$core..ptr..NonNull$LT$T$GT$$GT$3new17hac64a586f0fd2e6aE
	movq	%rax, 8(%rsp)
	movq	8(%rsp), %rdi
	callq	_ZN38_$LT$core..option..Option$LT$T$GT$$GT$5ok_or17he2d4e6eec513b6e1E
	movq	%rax, (%rsp)
	movq	(%rsp), %rax
	addq	$40, %rsp
	.cfi_def_cfa_offset 8
	retq
.Lfunc_end215:
	.size	_ZN59_$LT$alloc..alloc..Global$u20$as$u20$core..alloc..Alloc$GT$12alloc_zeroed17h5d9ccba75440635bE, .Lfunc_end215-_ZN59_$LT$alloc..alloc..Global$u20$as$u20$core..alloc..Alloc$GT$12alloc_zeroed17h5d9ccba75440635bE
	.cfi_endproc

	.section	".text._ZN59_$LT$alloc..alloc..Global$u20$as$u20$core..alloc..Alloc$GT$5alloc17h18e22881dfbb3db1E","ax",@progbits
	.p2align	4, 0x90
	.type	_ZN59_$LT$alloc..alloc..Global$u20$as$u20$core..alloc..Alloc$GT$5alloc17h18e22881dfbb3db1E,@function
_ZN59_$LT$alloc..alloc..Global$u20$as$u20$core..alloc..Alloc$GT$5alloc17h18e22881dfbb3db1E:
	.cfi_startproc
	subq	$40, %rsp
	.cfi_def_cfa_offset 48
	movq	%rdi, 24(%rsp)
	movq	%rsi, %rdi
	movq	%rdx, %rsi
	callq	_ZN5alloc5alloc5alloc17ha01d5f31b0f7f253E
	movq	%rax, 16(%rsp)
	movq	16(%rsp), %rdi
	callq	_ZN36_$LT$core..ptr..NonNull$LT$T$GT$$GT$3new17hac64a586f0fd2e6aE
	movq	%rax, 8(%rsp)
	movq	8(%rsp), %rdi
	callq	_ZN38_$LT$core..option..Option$LT$T$GT$$GT$5ok_or17he2d4e6eec513b6e1E
	movq	%rax, (%rsp)
	movq	(%rsp), %rax
	addq	$40, %rsp
	.cfi_def_cfa_offset 8
	retq
.Lfunc_end216:
	.size	_ZN59_$LT$alloc..alloc..Global$u20$as$u20$core..alloc..Alloc$GT$5alloc17h18e22881dfbb3db1E, .Lfunc_end216-_ZN59_$LT$alloc..alloc..Global$u20$as$u20$core..alloc..Alloc$GT$5alloc17h18e22881dfbb3db1E
	.cfi_endproc

	.section	".text._ZN59_$LT$alloc..alloc..Global$u20$as$u20$core..alloc..Alloc$GT$7dealloc17h5a0ff16466d6b1a9E","ax",@progbits
	.p2align	4, 0x90
	.type	_ZN59_$LT$alloc..alloc..Global$u20$as$u20$core..alloc..Alloc$GT$7dealloc17h5a0ff16466d6b1a9E,@function
_ZN59_$LT$alloc..alloc..Global$u20$as$u20$core..alloc..Alloc$GT$7dealloc17h5a0ff16466d6b1a9E:
	.cfi_startproc
	subq	$40, %rsp
	.cfi_def_cfa_offset 48
	movq	%rdi, 32(%rsp)
	movq	%rsi, %rdi
	movq	%rdx, 24(%rsp)
	movq	%rcx, 16(%rsp)
	callq	_ZN36_$LT$core..ptr..NonNull$LT$T$GT$$GT$6as_ptr17h8ae30db3898b1905E
	movq	%rax, 8(%rsp)
	movq	8(%rsp), %rdi
	movq	24(%rsp), %rsi
	movq	16(%rsp), %rdx
	callq	_ZN5alloc5alloc7dealloc17h82fe5c2d53045a6fE
	addq	$40, %rsp
	.cfi_def_cfa_offset 8
	retq
.Lfunc_end217:
	.size	_ZN59_$LT$alloc..alloc..Global$u20$as$u20$core..alloc..Alloc$GT$7dealloc17h5a0ff16466d6b1a9E, .Lfunc_end217-_ZN59_$LT$alloc..alloc..Global$u20$as$u20$core..alloc..Alloc$GT$7dealloc17h5a0ff16466d6b1a9E
	.cfi_endproc

	.section	".text._ZN59_$LT$alloc..alloc..Global$u20$as$u20$core..alloc..Alloc$GT$7realloc17hc997fae7cd1ab540E","ax",@progbits
	.p2align	4, 0x90
	.type	_ZN59_$LT$alloc..alloc..Global$u20$as$u20$core..alloc..Alloc$GT$7realloc17hc997fae7cd1ab540E,@function
_ZN59_$LT$alloc..alloc..Global$u20$as$u20$core..alloc..Alloc$GT$7realloc17hc997fae7cd1ab540E:
	.cfi_startproc
	subq	$72, %rsp
	.cfi_def_cfa_offset 80
	movq	%rdi, 56(%rsp)
	movq	%rsi, %rdi
	movq	%rdx, 48(%rsp)
	movq	%rcx, 40(%rsp)
	movq	%r8, 32(%rsp)
	callq	_ZN36_$LT$core..ptr..NonNull$LT$T$GT$$GT$6as_ptr17h8ae30db3898b1905E
	movq	%rax, 24(%rsp)
	movq	24(%rsp), %rdi
	movq	48(%rsp), %rsi
	movq	40(%rsp), %rdx
	movq	32(%rsp), %rcx
	callq	_ZN5alloc5alloc7realloc17h9fd3555747f72cb3E
	movq	%rax, 16(%rsp)
	movq	16(%rsp), %rdi
	callq	_ZN36_$LT$core..ptr..NonNull$LT$T$GT$$GT$3new17hac64a586f0fd2e6aE
	movq	%rax, 8(%rsp)
	movq	8(%rsp), %rdi
	callq	_ZN38_$LT$core..option..Option$LT$T$GT$$GT$5ok_or17he2d4e6eec513b6e1E
	movq	%rax, (%rsp)
	movq	(%rsp), %rax
	addq	$72, %rsp
	.cfi_def_cfa_offset 8
	retq
.Lfunc_end218:
	.size	_ZN59_$LT$alloc..alloc..Global$u20$as$u20$core..alloc..Alloc$GT$7realloc17hc997fae7cd1ab540E, .Lfunc_end218-_ZN59_$LT$alloc..alloc..Global$u20$as$u20$core..alloc..Alloc$GT$7realloc17hc997fae7cd1ab540E
	.cfi_endproc

	.section	".text._ZN59_$LT$std..panicking..begin_panic..PanicPayload$LT$A$GT$$GT$3new17h4c8a0907a1c6bcfaE","ax",@progbits
	.p2align	4, 0x90
	.type	_ZN59_$LT$std..panicking..begin_panic..PanicPayload$LT$A$GT$$GT$3new17h4c8a0907a1c6bcfaE,@function
_ZN59_$LT$std..panicking..begin_panic..PanicPayload$LT$A$GT$$GT$3new17h4c8a0907a1c6bcfaE:
	.cfi_startproc
	subq	$32, %rsp
	.cfi_def_cfa_offset 40
	movq	%rdi, 16(%rsp)
	movq	%rsi, 24(%rsp)
	movq	16(%rsp), %rsi
	movq	24(%rsp), %rdi
	movq	%rsi, (%rsp)
	movq	%rdi, 8(%rsp)
	movq	(%rsp), %rax
	movq	8(%rsp), %rdx
	addq	$32, %rsp
	.cfi_def_cfa_offset 8
	retq
.Lfunc_end219:
	.size	_ZN59_$LT$std..panicking..begin_panic..PanicPayload$LT$A$GT$$GT$3new17h4c8a0907a1c6bcfaE, .Lfunc_end219-_ZN59_$LT$std..panicking..begin_panic..PanicPayload$LT$A$GT$$GT$3new17h4c8a0907a1c6bcfaE
	.cfi_endproc

	.section	.text._ZN5alloc3vec12SetLenOnDrop13increment_len17h2dc7a8cdb67e4587E,"ax",@progbits
	.p2align	4, 0x90
	.type	_ZN5alloc3vec12SetLenOnDrop13increment_len17h2dc7a8cdb67e4587E,@function
_ZN5alloc3vec12SetLenOnDrop13increment_len17h2dc7a8cdb67e4587E:
	.cfi_startproc
	addq	8(%rdi), %rsi
	movq	%rsi, 8(%rdi)
	retq
.Lfunc_end220:
	.size	_ZN5alloc3vec12SetLenOnDrop13increment_len17h2dc7a8cdb67e4587E, .Lfunc_end220-_ZN5alloc3vec12SetLenOnDrop13increment_len17h2dc7a8cdb67e4587E
	.cfi_endproc

	.section	.text._ZN5alloc3vec12SetLenOnDrop3new17h7d7ea1632535aa06E,"ax",@progbits
	.p2align	4, 0x90
	.type	_ZN5alloc3vec12SetLenOnDrop3new17h7d7ea1632535aa06E,@function
_ZN5alloc3vec12SetLenOnDrop3new17h7d7ea1632535aa06E:
	.cfi_startproc
	subq	$16, %rsp
	.cfi_def_cfa_offset 24
	movq	(%rdi), %rax
	movq	%rdi, (%rsp)
	movq	%rax, 8(%rsp)
	movq	(%rsp), %rax
	movq	8(%rsp), %rdx
	addq	$16, %rsp
	.cfi_def_cfa_offset 8
	retq
.Lfunc_end221:
	.size	_ZN5alloc3vec12SetLenOnDrop3new17h7d7ea1632535aa06E, .Lfunc_end221-_ZN5alloc3vec12SetLenOnDrop3new17h7d7ea1632535aa06E
	.cfi_endproc

	.section	.text._ZN5alloc3vec9from_elem17ha03f6d1a7b7a2a4bE,"ax",@progbits
	.p2align	4, 0x90
	.type	_ZN5alloc3vec9from_elem17ha03f6d1a7b7a2a4bE,@function
_ZN5alloc3vec9from_elem17ha03f6d1a7b7a2a4bE:
	.cfi_startproc
	pushq	%rax
	.cfi_def_cfa_offset 16
	movb	%sil, %al
	movq	%rdi, %rcx
	movzbl	%al, %esi
	andl	$1, %esi
	movq	%rcx, (%rsp)
	callq	_ZN46_$LT$T$u20$as$u20$alloc..vec..SpecFromElem$GT$9from_elem17h3878d94421b83cf3E
	movq	(%rsp), %rax
	popq	%rcx
	.cfi_def_cfa_offset 8
	retq
.Lfunc_end222:
	.size	_ZN5alloc3vec9from_elem17ha03f6d1a7b7a2a4bE, .Lfunc_end222-_ZN5alloc3vec9from_elem17ha03f6d1a7b7a2a4bE
	.cfi_endproc

	.section	.text._ZN5alloc5alloc12alloc_zeroed17h33fd5176deaef3d8E,"ax",@progbits
	.p2align	4, 0x90
	.type	_ZN5alloc5alloc12alloc_zeroed17h33fd5176deaef3d8E,@function
_ZN5alloc5alloc12alloc_zeroed17h33fd5176deaef3d8E:
	.cfi_startproc
	subq	$40, %rsp
	.cfi_def_cfa_offset 48
	movq	%rdi, 24(%rsp)
	movq	%rsi, 32(%rsp)
	leaq	24(%rsp), %rdi
	callq	_ZN4core5alloc6Layout4size17h15dce328eb04a6a3E
	movq	%rax, 16(%rsp)
	leaq	24(%rsp), %rdi
	callq	_ZN4core5alloc6Layout5align17h13f65997ab32cd65E
	movq	%rax, 8(%rsp)
	movq	16(%rsp), %rdi
	movq	8(%rsp), %rsi
	callq	*__rust_alloc_zeroed@GOTPCREL(%rip)
	movq	%rax, (%rsp)
	movq	(%rsp), %rax
	addq	$40, %rsp
	.cfi_def_cfa_offset 8
	retq
.Lfunc_end223:
	.size	_ZN5alloc5alloc12alloc_zeroed17h33fd5176deaef3d8E, .Lfunc_end223-_ZN5alloc5alloc12alloc_zeroed17h33fd5176deaef3d8E
	.cfi_endproc

	.section	.text._ZN5alloc5alloc15exchange_malloc17h0ac8242452133963E,"ax",@progbits
	.p2align	4, 0x90
	.type	_ZN5alloc5alloc15exchange_malloc17h0ac8242452133963E,@function
_ZN5alloc5alloc15exchange_malloc17h0ac8242452133963E:
	.cfi_startproc
	subq	$56, %rsp
	.cfi_def_cfa_offset 64
	cmpq	$0, %rdi
	movq	%rdi, 40(%rsp)
	movq	%rsi, 32(%rsp)
	jne	.LBB224_2
	movq	32(%rsp), %rax
	movq	%rax, 48(%rsp)
	jmp	.LBB224_8
.LBB224_2:
	movq	40(%rsp), %rdi
	movq	32(%rsp), %rsi
	callq	_ZN4core5alloc6Layout25from_size_align_unchecked17h508f9a941507fc18E
	movq	%rax, 24(%rsp)
	movq	%rdx, 16(%rsp)
	movq	24(%rsp), %rdi
	movq	16(%rsp), %rsi
	callq	_ZN5alloc5alloc5alloc17ha01d5f31b0f7f253E
	movq	%rax, 8(%rsp)
	movq	8(%rsp), %rdi
	callq	_ZN4core3ptr31_$LT$impl$u20$$BP$mut$u20$T$GT$7is_null17h035b50f84cd8fd06E
	movb	%al, 7(%rsp)
	movb	7(%rsp), %al
	xorb	$-1, %al
	testb	$1, %al
	jne	.LBB224_6
	jmp	.LBB224_7
.LBB224_6:
	movq	8(%rsp), %rax
	movq	%rax, 48(%rsp)
	jmp	.LBB224_8
.LBB224_7:
	movq	_ZN5alloc5alloc18handle_alloc_error17ha47010db164a19ccE@GOTPCREL(%rip), %rax
	movq	24(%rsp), %rdi
	movq	16(%rsp), %rsi
	callq	*%rax
	ud2
.LBB224_8:
	movq	48(%rsp), %rax
	addq	$56, %rsp
	.cfi_def_cfa_offset 8
	retq
.Lfunc_end224:
	.size	_ZN5alloc5alloc15exchange_malloc17h0ac8242452133963E, .Lfunc_end224-_ZN5alloc5alloc15exchange_malloc17h0ac8242452133963E
	.cfi_endproc

	.section	.text._ZN5alloc5alloc5alloc17ha01d5f31b0f7f253E,"ax",@progbits
	.p2align	4, 0x90
	.type	_ZN5alloc5alloc5alloc17ha01d5f31b0f7f253E,@function
_ZN5alloc5alloc5alloc17ha01d5f31b0f7f253E:
	.cfi_startproc
	subq	$40, %rsp
	.cfi_def_cfa_offset 48
	movq	%rdi, 24(%rsp)
	movq	%rsi, 32(%rsp)
	leaq	24(%rsp), %rdi
	callq	_ZN4core5alloc6Layout4size17h15dce328eb04a6a3E
	movq	%rax, 16(%rsp)
	leaq	24(%rsp), %rdi
	callq	_ZN4core5alloc6Layout5align17h13f65997ab32cd65E
	movq	%rax, 8(%rsp)
	movq	16(%rsp), %rdi
	movq	8(%rsp), %rsi
	callq	*__rust_alloc@GOTPCREL(%rip)
	movq	%rax, (%rsp)
	movq	(%rsp), %rax
	addq	$40, %rsp
	.cfi_def_cfa_offset 8
	retq
.Lfunc_end225:
	.size	_ZN5alloc5alloc5alloc17ha01d5f31b0f7f253E, .Lfunc_end225-_ZN5alloc5alloc5alloc17ha01d5f31b0f7f253E
	.cfi_endproc

	.section	.text._ZN5alloc5alloc7dealloc17h82fe5c2d53045a6fE,"ax",@progbits
	.p2align	4, 0x90
	.type	_ZN5alloc5alloc7dealloc17h82fe5c2d53045a6fE,@function
_ZN5alloc5alloc7dealloc17h82fe5c2d53045a6fE:
	.cfi_startproc
	subq	$40, %rsp
	.cfi_def_cfa_offset 48
	movq	%rsi, 24(%rsp)
	movq	%rdx, 32(%rsp)
	leaq	24(%rsp), %rdx
	movq	%rdi, 16(%rsp)
	movq	%rdx, %rdi
	callq	_ZN4core5alloc6Layout4size17h15dce328eb04a6a3E
	movq	%rax, 8(%rsp)
	leaq	24(%rsp), %rdi
	callq	_ZN4core5alloc6Layout5align17h13f65997ab32cd65E
	movq	%rax, (%rsp)
	movq	16(%rsp), %rdi
	movq	8(%rsp), %rsi
	movq	(%rsp), %rdx
	callq	*__rust_dealloc@GOTPCREL(%rip)
	addq	$40, %rsp
	.cfi_def_cfa_offset 8
	retq
.Lfunc_end226:
	.size	_ZN5alloc5alloc7dealloc17h82fe5c2d53045a6fE, .Lfunc_end226-_ZN5alloc5alloc7dealloc17h82fe5c2d53045a6fE
	.cfi_endproc

	.section	.text._ZN5alloc5alloc7realloc17h9fd3555747f72cb3E,"ax",@progbits
	.p2align	4, 0x90
	.type	_ZN5alloc5alloc7realloc17h9fd3555747f72cb3E,@function
_ZN5alloc5alloc7realloc17h9fd3555747f72cb3E:
	.cfi_startproc
	subq	$56, %rsp
	.cfi_def_cfa_offset 64
	movq	%rsi, 40(%rsp)
	movq	%rdx, 48(%rsp)
	leaq	40(%rsp), %rdx
	movq	%rdi, 32(%rsp)
	movq	%rdx, %rdi
	movq	%rcx, 24(%rsp)
	callq	_ZN4core5alloc6Layout4size17h15dce328eb04a6a3E
	movq	%rax, 16(%rsp)
	leaq	40(%rsp), %rdi
	callq	_ZN4core5alloc6Layout5align17h13f65997ab32cd65E
	movq	%rax, 8(%rsp)
	movq	32(%rsp), %rdi
	movq	16(%rsp), %rsi
	movq	8(%rsp), %rdx
	movq	24(%rsp), %rcx
	callq	*__rust_realloc@GOTPCREL(%rip)
	movq	%rax, (%rsp)
	movq	(%rsp), %rax
	addq	$56, %rsp
	.cfi_def_cfa_offset 8
	retq
.Lfunc_end227:
	.size	_ZN5alloc5alloc7realloc17h9fd3555747f72cb3E, .Lfunc_end227-_ZN5alloc5alloc7realloc17h9fd3555747f72cb3E
	.cfi_endproc

	.section	.text._ZN5alloc5alloc8box_free17h2666cf86d3003c8bE,"ax",@progbits
	.p2align	4, 0x90
	.type	_ZN5alloc5alloc8box_free17h2666cf86d3003c8bE,@function
_ZN5alloc5alloc8box_free17h2666cf86d3003c8bE:
	.cfi_startproc
	subq	$72, %rsp
	.cfi_def_cfa_offset 80
	callq	_ZN35_$LT$core..ptr..Unique$LT$T$GT$$GT$6as_ptr17hba5c059b04d49cd3E
	movq	%rax, 48(%rsp)
	movq	%rdx, 40(%rsp)
	movq	40(%rsp), %rax
	shlq	$8, %rax
	movq	%rax, 56(%rsp)
	movq	56(%rsp), %rax
	movq	%rax, 32(%rsp)
	movq	$8, 64(%rsp)
	movq	64(%rsp), %rsi
	movq	%rsi, 24(%rsp)
	movq	32(%rsp), %rax
	cmpq	$0, %rax
	je	.LBB228_7
	movq	32(%rsp), %rdi
	movq	24(%rsp), %rsi
	callq	_ZN4core5alloc6Layout25from_size_align_unchecked17h508f9a941507fc18E
	movq	%rax, 16(%rsp)
	movq	%rdx, 8(%rsp)
	movq	48(%rsp), %rax
	movq	%rax, %rdi
	movq	16(%rsp), %rsi
	movq	8(%rsp), %rdx
	callq	_ZN5alloc5alloc7dealloc17h82fe5c2d53045a6fE
	jmp	.LBB228_7
.LBB228_7:
	addq	$72, %rsp
	.cfi_def_cfa_offset 8
	retq
.Lfunc_end228:
	.size	_ZN5alloc5alloc8box_free17h2666cf86d3003c8bE, .Lfunc_end228-_ZN5alloc5alloc8box_free17h2666cf86d3003c8bE
	.cfi_endproc

	.section	.text._ZN5alloc5alloc8box_free17hb9ad28e6a8c93cf6E,"ax",@progbits
	.p2align	4, 0x90
	.type	_ZN5alloc5alloc8box_free17hb9ad28e6a8c93cf6E,@function
_ZN5alloc5alloc8box_free17hb9ad28e6a8c93cf6E:
	.cfi_startproc
	subq	$72, %rsp
	.cfi_def_cfa_offset 80
	callq	_ZN35_$LT$core..ptr..Unique$LT$T$GT$$GT$6as_ptr17h1d872ee07e3af1eaE
	movq	%rax, 48(%rsp)
	movq	%rdx, 40(%rsp)
	movq	40(%rsp), %rax
	movq	8(%rax), %rcx
	movq	%rcx, 56(%rsp)
	movq	56(%rsp), %rcx
	movq	%rcx, 32(%rsp)
	movq	40(%rsp), %rax
	movq	16(%rax), %rcx
	movq	%rcx, 64(%rsp)
	movq	64(%rsp), %rsi
	movq	%rsi, 24(%rsp)
	movq	32(%rsp), %rax
	cmpq	$0, %rax
	je	.LBB229_7
	movq	32(%rsp), %rdi
	movq	24(%rsp), %rsi
	callq	_ZN4core5alloc6Layout25from_size_align_unchecked17h508f9a941507fc18E
	movq	%rax, 16(%rsp)
	movq	%rdx, 8(%rsp)
	movq	48(%rsp), %rax
	movq	%rax, %rdi
	movq	16(%rsp), %rsi
	movq	8(%rsp), %rdx
	callq	_ZN5alloc5alloc7dealloc17h82fe5c2d53045a6fE
	jmp	.LBB229_7
.LBB229_7:
	addq	$72, %rsp
	.cfi_def_cfa_offset 8
	retq
.Lfunc_end229:
	.size	_ZN5alloc5alloc8box_free17hb9ad28e6a8c93cf6E, .Lfunc_end229-_ZN5alloc5alloc8box_free17hb9ad28e6a8c93cf6E
	.cfi_endproc

	.section	".text._ZN5alloc5slice29_$LT$impl$u20$$u5b$T$u5d$$GT$8into_vec17h0323d151325684e9E","ax",@progbits
	.p2align	4, 0x90
